Archive member included because of file (symbol)

/home/oracle/devkitPro/PAlib/source/arm7_mp3/../../lib/libpa7.a(as_lib7.o)
                              main.o (AS_Init)
/home/oracle/devkitPro/PAlib/source/arm7_mp3/../../lib/libpa7.a(PA.o)
                              main.o (PA_Init)
/home/oracle/devkitPro/PAlib/source/arm7_mp3/../../lib/libpa7.a(PA_Fifo.o)
                              /home/oracle/devkitPro/PAlib/source/arm7_mp3/../../lib/libpa7.a(PA.o) (PA_InitFifo)
/home/oracle/devkitPro/PAlib/source/arm7_mp3/../../lib/libpa7.a(PA_Input.o)
                              main.o (PA_InputGetAndSend)
/home/oracle/devkitPro/PAlib/source/arm7_mp3/../../lib/libpa7.a(PA_Legacy.o)
                              main.o (PA_LegacyIPCManage)
/home/oracle/devkitPro/PAlib/source/arm7_mp3/../../lib/libpa7.a(PA_Mic.o)
                              /home/oracle/devkitPro/PAlib/source/arm7_mp3/../../lib/libpa7.a(PA_Fifo.o) (PA_FifoMicMsg)
/home/oracle/devkitPro/PAlib/source/arm7_mp3/../../lib/libpa7.a(PA_PSG.o)
                              /home/oracle/devkitPro/PAlib/source/arm7_mp3/../../lib/libpa7.a(PA_Fifo.o) (PA_FifoPSGMsg)
/home/oracle/devkitPro/PAlib/source/arm7_mp3/../../lib/libpa7.a(mp3dec.o)
                              /home/oracle/devkitPro/PAlib/source/arm7_mp3/../../lib/libpa7.a(as_lib7.o) (getAllocationSize)
/home/oracle/devkitPro/PAlib/source/arm7_mp3/../../lib/libpa7.a(mp3tabs.o)
                              /home/oracle/devkitPro/PAlib/source/arm7_mp3/../../lib/libpa7.a(mp3dec.o) (xmp3_samplesPerFrameTab)
/home/oracle/devkitPro/PAlib/source/arm7_mp3/../../lib/libpa7.a(bitstream.o)
                              /home/oracle/devkitPro/PAlib/source/arm7_mp3/../../lib/libpa7.a(mp3dec.o) (xmp3_CheckPadBit)
/home/oracle/devkitPro/PAlib/source/arm7_mp3/../../lib/libpa7.a(buffers.o)
                              /home/oracle/devkitPro/PAlib/source/arm7_mp3/../../lib/libpa7.a(mp3dec.o) (xmp3_FreeBuffers)
/home/oracle/devkitPro/PAlib/source/arm7_mp3/../../lib/libpa7.a(dequant.o)
                              /home/oracle/devkitPro/PAlib/source/arm7_mp3/../../lib/libpa7.a(mp3dec.o) (xmp3_Dequantize)
/home/oracle/devkitPro/PAlib/source/arm7_mp3/../../lib/libpa7.a(dqchan.o)
                              /home/oracle/devkitPro/PAlib/source/arm7_mp3/../../lib/libpa7.a(dequant.o) (xmp3_DequantChannel)
/home/oracle/devkitPro/PAlib/source/arm7_mp3/../../lib/libpa7.a(huffman.o)
                              /home/oracle/devkitPro/PAlib/source/arm7_mp3/../../lib/libpa7.a(mp3dec.o) (xmp3_DecodeHuffman)
/home/oracle/devkitPro/PAlib/source/arm7_mp3/../../lib/libpa7.a(hufftabs.o)
                              /home/oracle/devkitPro/PAlib/source/arm7_mp3/../../lib/libpa7.a(huffman.o) (xmp3_huffTable)
/home/oracle/devkitPro/PAlib/source/arm7_mp3/../../lib/libpa7.a(imdct.o)
                              /home/oracle/devkitPro/PAlib/source/arm7_mp3/../../lib/libpa7.a(mp3dec.o) (xmp3_IMDCT)
/home/oracle/devkitPro/PAlib/source/arm7_mp3/../../lib/libpa7.a(scalfact.o)
                              /home/oracle/devkitPro/PAlib/source/arm7_mp3/../../lib/libpa7.a(mp3dec.o) (xmp3_UnpackScaleFactors)
/home/oracle/devkitPro/PAlib/source/arm7_mp3/../../lib/libpa7.a(stproc.o)
                              /home/oracle/devkitPro/PAlib/source/arm7_mp3/../../lib/libpa7.a(dequant.o) (xmp3_MidSideProc)
/home/oracle/devkitPro/PAlib/source/arm7_mp3/../../lib/libpa7.a(subband.o)
                              /home/oracle/devkitPro/PAlib/source/arm7_mp3/../../lib/libpa7.a(mp3dec.o) (xmp3_Subband)
/home/oracle/devkitPro/PAlib/source/arm7_mp3/../../lib/libpa7.a(trigtabs.o)
                              /home/oracle/devkitPro/PAlib/source/arm7_mp3/../../lib/libpa7.a(imdct.o) (xmp3_imdctWin)
/home/oracle/devkitPro/PAlib/source/arm7_mp3/../../lib/libpa7.a(asmpoly_gcc.o)
                              /home/oracle/devkitPro/PAlib/source/arm7_mp3/../../lib/libpa7.a(subband.o) (xmp3_PolyphaseStereo)
/home/oracle/devkitPro/PAlib/source/arm7_mp3/../../lib/libpa7.a(dct32.o)
                              /home/oracle/devkitPro/PAlib/source/arm7_mp3/../../lib/libpa7.a(subband.o) (xmp3_FDCT32)
/home/oracle/devkitPro/libnds/lib/libnds7.a(audio.o)
                              /home/oracle/devkitPro/PAlib/source/arm7_mp3/../../lib/libpa7.a(PA.o) (enableSound)
/home/oracle/devkitPro/libnds/lib/libnds7.a(clock.o)
                              /home/oracle/devkitPro/PAlib/source/arm7_mp3/../../lib/libpa7.a(PA.o) (initClockIRQ)
/home/oracle/devkitPro/libnds/lib/libnds7.a(input.o)
                              /home/oracle/devkitPro/PAlib/source/arm7_mp3/../../lib/libpa7.a(PA_Input.o) (inputGetAndSend)
/home/oracle/devkitPro/libnds/lib/libnds7.a(microphone.o)
                              /home/oracle/devkitPro/PAlib/source/arm7_mp3/../../lib/libpa7.a(PA_Input.o) (micReadData8)
/home/oracle/devkitPro/libnds/lib/libnds7.a(spi.o)
                              /home/oracle/devkitPro/PAlib/source/arm7_mp3/../../lib/libpa7.a(PA_Fifo.o) (writePowerManagement)
/home/oracle/devkitPro/libnds/lib/libnds7.a(system.o)
                              /home/oracle/devkitPro/PAlib/source/arm7_mp3/../../lib/libpa7.a(PA.o) (installSystemFIFO)
/home/oracle/devkitPro/libnds/lib/libnds7.a(touch.o)
                              /home/oracle/devkitPro/PAlib/source/arm7_mp3/../../lib/libpa7.a(PA_Input.o) (touchRead)
/home/oracle/devkitPro/libnds/lib/libnds7.a(userSettings.o)
                              /home/oracle/devkitPro/PAlib/source/arm7_mp3/../../lib/libpa7.a(PA.o) (readUserSettings)
/home/oracle/devkitPro/libnds/lib/libnds7.a(fifosystem.o)
                              /home/oracle/devkitPro/libnds/lib/libnds7.a(audio.o) (fifoSendValue32)
/home/oracle/devkitPro/libnds/lib/libnds7.a(interrupts.o)
                              main.o (irqSet)
/home/oracle/devkitPro/libnds/lib/libnds7.a(libnds_exit.o)
                              /home/oracle/devkitPro/devkitARM/bin/../lib/gcc/arm-eabi/4.4.3/../../../../arm-eabi/lib/ds_arm7_crt0.o (__libnds_exit)
/home/oracle/devkitPro/libnds/lib/libnds7.a(timers.o)
                              /home/oracle/devkitPro/PAlib/source/arm7_mp3/../../lib/libpa7.a(PA_Mic.o) (timerStart)
/home/oracle/devkitPro/libnds/lib/libnds7.a(intrwait.o)
                              main.o (swiWaitForVBlank)
/home/oracle/devkitPro/libnds/lib/libnds7.a(biosCalls.o)
                              /home/oracle/devkitPro/libnds/lib/libnds7.a(clock.o) (swiDelay)
/home/oracle/devkitPro/libnds/lib/libnds7.a(interruptDispatcher.o)
                              /home/oracle/devkitPro/libnds/lib/libnds7.a(interrupts.o) (IntrMain)
/home/oracle/devkitPro/libnds/lib/libnds7.a(swiSoftReset.o)
                              /home/oracle/devkitPro/PAlib/source/arm7_mp3/../../lib/libpa7.a(PA_Legacy.o) (swiSoftReset)
/home/oracle/devkitPro/devkitARM/bin/../lib/gcc/arm-eabi/4.4.3/libgcc.a(_divsi3.o)
                              /home/oracle/devkitPro/PAlib/source/arm7_mp3/../../lib/libpa7.a(as_lib7.o) (__aeabi_idiv)
/home/oracle/devkitPro/devkitARM/bin/../lib/gcc/arm-eabi/4.4.3/libgcc.a(_dvmd_tls.o)
                              /home/oracle/devkitPro/devkitARM/bin/../lib/gcc/arm-eabi/4.4.3/libgcc.a(_divsi3.o) (__div0)
/home/oracle/devkitPro/devkitARM/bin/../lib/gcc/arm-eabi/4.4.3/../../../../arm-eabi/lib/libg.a(lib_a-init.o)
                              /home/oracle/devkitPro/devkitARM/bin/../lib/gcc/arm-eabi/4.4.3/../../../../arm-eabi/lib/ds_arm7_crt0.o (__libc_init_array)
/home/oracle/devkitPro/devkitARM/bin/../lib/gcc/arm-eabi/4.4.3/../../../../arm-eabi/lib/libg.a(lib_a-malloc.o)
                              /home/oracle/devkitPro/PAlib/source/arm7_mp3/../../lib/libpa7.a(buffers.o) (free)
/home/oracle/devkitPro/devkitARM/bin/../lib/gcc/arm-eabi/4.4.3/../../../../arm-eabi/lib/libg.a(lib_a-mallocr.o)
                              /home/oracle/devkitPro/devkitARM/bin/../lib/gcc/arm-eabi/4.4.3/../../../../arm-eabi/lib/libg.a(lib_a-malloc.o) (_malloc_r)
/home/oracle/devkitPro/devkitARM/bin/../lib/gcc/arm-eabi/4.4.3/../../../../arm-eabi/lib/libg.a(lib_a-memcpy.o)
                              /home/oracle/devkitPro/PAlib/source/arm7_mp3/../../lib/libpa7.a(as_lib7.o) (memcpy)
/home/oracle/devkitPro/devkitARM/bin/../lib/gcc/arm-eabi/4.4.3/../../../../arm-eabi/lib/libg.a(lib_a-memmove.o)
                              /home/oracle/devkitPro/PAlib/source/arm7_mp3/../../lib/libpa7.a(mp3dec.o) (memmove)
/home/oracle/devkitPro/devkitARM/bin/../lib/gcc/arm-eabi/4.4.3/../../../../arm-eabi/lib/libg.a(lib_a-memset.o)
                              /home/oracle/devkitPro/PAlib/source/arm7_mp3/../../lib/libpa7.a(as_lib7.o) (memset)
/home/oracle/devkitPro/devkitARM/bin/../lib/gcc/arm-eabi/4.4.3/../../../../arm-eabi/lib/libg.a(lib_a-mlock.o)
                              /home/oracle/devkitPro/devkitARM/bin/../lib/gcc/arm-eabi/4.4.3/../../../../arm-eabi/lib/libg.a(lib_a-mallocr.o) (__malloc_lock)
/home/oracle/devkitPro/devkitARM/bin/../lib/gcc/arm-eabi/4.4.3/../../../../arm-eabi/lib/libg.a(lib_a-freer.o)
                              /home/oracle/devkitPro/devkitARM/bin/../lib/gcc/arm-eabi/4.4.3/../../../../arm-eabi/lib/libg.a(lib_a-malloc.o) (_free_r)
/home/oracle/devkitPro/devkitARM/bin/../lib/gcc/arm-eabi/4.4.3/../../../../arm-eabi/lib/libg.a(lib_a-impure.o)
                              /home/oracle/devkitPro/devkitARM/bin/../lib/gcc/arm-eabi/4.4.3/../../../../arm-eabi/lib/libg.a(lib_a-malloc.o) (_impure_ptr)
/home/oracle/devkitPro/devkitARM/bin/../lib/gcc/arm-eabi/4.4.3/../../../../arm-eabi/lib/libsysbase.a(sbrk.o)
                              /home/oracle/devkitPro/devkitARM/bin/../lib/gcc/arm-eabi/4.4.3/../../../../arm-eabi/lib/libg.a(lib_a-mallocr.o) (_sbrk_r)
/home/oracle/devkitPro/devkitARM/bin/../lib/gcc/arm-eabi/4.4.3/../../../../arm-eabi/lib/libsysbase.a(malloc_vars.o)
                              /home/oracle/devkitPro/devkitARM/bin/../lib/gcc/arm-eabi/4.4.3/../../../../arm-eabi/lib/libsysbase.a(sbrk.o) (fake_heap_end)

Allocating common symbols
Common symbol       size              file

fifo_datamsg_data   0x40              /home/oracle/devkitPro/libnds/lib/libnds7.a(fifosystem.o)
nAudioBufStart      0x4               /home/oracle/devkitPro/PAlib/source/arm7_mp3/../../lib/libpa7.a(as_lib7.o)
fifo_buffer         0x400             /home/oracle/devkitPro/libnds/lib/libnds7.a(fifosystem.o)
audioBuf            0x1200            /home/oracle/devkitPro/PAlib/source/arm7_mp3/../../lib/libpa7.a(as_lib7.o)
irqTableAUX         0xc8              /home/oracle/devkitPro/libnds/lib/libnds7.a(interrupts.o)
fifo_value32_func   0x40              /home/oracle/devkitPro/libnds/lib/libnds7.a(fifosystem.o)
fifo_address_func   0x40              /home/oracle/devkitPro/libnds/lib/libnds7.a(fifosystem.o)
PA_IPC              0x4               /home/oracle/devkitPro/PAlib/source/arm7_mp3/../../lib/libpa7.a(PA_Legacy.o)
hMP3Decoder         0x4               /home/oracle/devkitPro/PAlib/source/arm7_mp3/../../lib/libpa7.a(as_lib7.o)
fifo_value32_data   0x40              /home/oracle/devkitPro/libnds/lib/libnds7.a(fifosystem.o)
fifo_value32_queue  0x40              /home/oracle/devkitPro/libnds/lib/libnds7.a(fifosystem.o)
fifo_data_queue     0x40              /home/oracle/devkitPro/libnds/lib/libnds7.a(fifosystem.o)
Keys                0x1               /home/oracle/devkitPro/libnds/lib/libnds7.a(input.o)
irqTable            0xc8              /home/oracle/devkitPro/libnds/lib/libnds7.a(interrupts.o)
readPtr             0x4               /home/oracle/devkitPro/PAlib/source/arm7_mp3/../../lib/libpa7.a(as_lib7.o)
bytesLeft           0x4               /home/oracle/devkitPro/PAlib/source/arm7_mp3/../../lib/libpa7.a(as_lib7.o)
fifo_address_data   0x40              /home/oracle/devkitPro/libnds/lib/libnds7.a(fifosystem.o)
stereo              0x1               /home/oracle/devkitPro/PAlib/source/arm7_mp3/../../lib/libpa7.a(as_lib7.o)
nAudioBuf           0x4               /home/oracle/devkitPro/PAlib/source/arm7_mp3/../../lib/libpa7.a(as_lib7.o)
mp3FrameInfo        0x1c              /home/oracle/devkitPro/PAlib/source/arm7_mp3/../../lib/libpa7.a(as_lib7.o)
fifo_datamsg_func   0x40              /home/oracle/devkitPro/libnds/lib/libnds7.a(fifosystem.o)
fifo_address_queue  0x40              /home/oracle/devkitPro/libnds/lib/libnds7.a(fifosystem.o)

Memory Configuration

Name             Origin             Length             Attributes
rom              0x0000000008000000 0x0000000002000000
iwram            0x00000000037f8000 0x0000000000018000
*default*        0x0000000000000000 0xffffffffffffffff

Linker script and memory map

                0x00000000037f8000                __iwram_start = 0x37f8000
                0x0000000003810000                __iwram_top = 0x3810000
                0x000000000380ff00                __sp_irq = (__iwram_top - 0x100)
                0x000000000380fe00                __sp_svc = (__sp_irq - 0x100)
                0x000000000380fd00                __sp_usr = (__sp_svc - 0x100)
                0x0000000003fffff8                __irq_flags = 0x3fffff8
                0x0000000003ffffc0                __irq_flagsaux = 0x3ffffc0
                0x0000000003fffffc                __irq_vector = 0x3fffffc

.init           0x00000000037f8000       0xe8
                0x00000000037f8000                __text_start = .
 *(.init)
 .init          0x00000000037f8000       0xd0 /home/oracle/devkitPro/devkitARM/bin/../lib/gcc/arm-eabi/4.4.3/../../../../arm-eabi/lib/ds_arm7_crt0.o
                0x00000000037f8000                _start
 .init          0x00000000037f80d0        0xc /home/oracle/devkitPro/devkitARM/bin/../lib/gcc/arm-eabi/4.4.3/crti.o
                0x00000000037f80d0                _init
 .init          0x00000000037f80dc        0xc /home/oracle/devkitPro/devkitARM/bin/../lib/gcc/arm-eabi/4.4.3/crtn.o
                0x00000000037f80e8                . = ALIGN (0x4)

.plt
 *(.plt)

.text           0x00000000037f80f0     0xa478
 *(.text .stub .text.* .gnu.linkonce.t.*)
 .text          0x00000000037f80f0        0x0 /home/oracle/devkitPro/devkitARM/bin/../lib/gcc/arm-eabi/4.4.3/../../../../arm-eabi/lib/ds_arm7_crt0.o
 .text          0x00000000037f80f0        0x0 /home/oracle/devkitPro/devkitARM/bin/../lib/gcc/arm-eabi/4.4.3/crti.o
 .text          0x00000000037f80f0       0x94 /home/oracle/devkitPro/devkitARM/bin/../lib/gcc/arm-eabi/4.4.3/crtbegin.o
 .text          0x00000000037f8184       0x68 main.o
                0x00000000037f8184                main
                0x00000000037f81c8                PA_VBL
                0x00000000037f81dc                PA_VCount
 .text          0x00000000037f81ec      0xc98 /home/oracle/devkitPro/PAlib/source/arm7_mp3/../../lib/libpa7.a(as_lib7.o)
                0x00000000037f81ec                AS_StereoDesinterleave
                0x00000000037f82b0                AS_SetTimer
                0x00000000037f8310                AS_MP3ClearBuffers
                0x00000000037f83cc                AS_MP3Stop
                0x00000000037f8410                AS_Init
                0x00000000037f8448                AS_InitMP3
                0x00000000037f8490                AS_SoundVBL
                0x00000000037f87bc                AS_RegenStreamCallback
                0x00000000037f8abc                AS_RegenStream
                0x00000000037f8b1c                AS_MP3Engine
 .text          0x00000000037f8e84       0x68 /home/oracle/devkitPro/PAlib/source/arm7_mp3/../../lib/libpa7.a(PA.o)
                0x00000000037f8e84                PA_Init
 .text          0x00000000037f8eec       0xe8 /home/oracle/devkitPro/PAlib/source/arm7_mp3/../../lib/libpa7.a(PA_Fifo.o)
                0x00000000037f8eec                PA_FifoValHandler
                0x00000000037f8f30                PA_FifoMsgHandler
                0x00000000037f8fa0                PA_InitFifo
 .text          0x00000000037f8fd4       0xa4 /home/oracle/devkitPro/PAlib/source/arm7_mp3/../../lib/libpa7.a(PA_Input.o)
                0x00000000037f8fd4                PA_ReadMicVol
                0x00000000037f9018                PA_InputGetAndSend
 .text          0x00000000037f9078      0x2e0 /home/oracle/devkitPro/PAlib/source/arm7_mp3/../../lib/libpa7.a(PA_Legacy.o)
                0x00000000037f9078                PA_SoundPlay
                0x00000000037f9154                PA_LegacySoundUpdates
                0x00000000037f92b0                PA_SoundStop
                0x00000000037f92c4                runNdsLoaderCheck
                0x00000000037f92fc                PA_LegacyIPCManage
 .text          0x00000000037f9358       0xb8 /home/oracle/devkitPro/PAlib/source/arm7_mp3/../../lib/libpa7.a(PA_Mic.o)
                0x00000000037f9358                PA_MicTimer
                0x00000000037f93d4                PA_FifoMicMsg
 .text          0x00000000037f9410       0x5c /home/oracle/devkitPro/PAlib/source/arm7_mp3/../../lib/libpa7.a(PA_PSG.o)
                0x00000000037f9410                PA_FifoPSGMsg
 .text          0x00000000037f946c      0x7ac /home/oracle/devkitPro/PAlib/source/arm7_mp3/../../lib/libpa7.a(mp3dec.o)
                0x00000000037f946c                getAllocationSize
                0x00000000037f9478                MP3FindSyncWord
                0x00000000037f94c0                MP3GetLastFrameInfo
                0x00000000037f9548                MP3GetNextFrameInfo
                0x00000000037f9598                MP3Decode
                0x00000000037f9bf4                MP3FreeDecoder
                0x00000000037f9c08                MP3InitDecoder
 .text          0x00000000037f9c18        0x0 /home/oracle/devkitPro/PAlib/source/arm7_mp3/../../lib/libpa7.a(mp3tabs.o)
 .text          0x00000000037f9c18      0x748 /home/oracle/devkitPro/PAlib/source/arm7_mp3/../../lib/libpa7.a(bitstream.o)
                0x00000000037f9c18                xmp3_SetBitstreamPointer
                0x00000000037f9c30                xmp3_GetBits
                0x00000000037f9d44                xmp3_CalcBitsUsed
                0x00000000037f9d5c                xmp3_CheckPadBit
                0x00000000037f9d88                xmp3_UnpackFrameHeader
                0x00000000037fa01c                xmp3_UnpackSideInfo
 .text          0x00000000037fa360      0x188 /home/oracle/devkitPro/PAlib/source/arm7_mp3/../../lib/libpa7.a(buffers.o)
                0x00000000037fa360                xmp3_FreeBuffers
                0x00000000037fa408                xmp3_AllocateBuffers
 .text          0x00000000037fa4e8      0x390 /home/oracle/devkitPro/PAlib/source/arm7_mp3/../../lib/libpa7.a(dequant.o)
                0x00000000037fa4e8                xmp3_Dequantize
 .text          0x00000000037fa878      0x578 /home/oracle/devkitPro/PAlib/source/arm7_mp3/../../lib/libpa7.a(dqchan.o)
                0x00000000037faa5c                xmp3_DequantChannel
 .text          0x00000000037fadf0      0x8f0 /home/oracle/devkitPro/PAlib/source/arm7_mp3/../../lib/libpa7.a(huffman.o)
                0x00000000037fadf0                xmp3_DecodeHuffman
 .text          0x00000000037fb6e0        0x0 /home/oracle/devkitPro/PAlib/source/arm7_mp3/../../lib/libpa7.a(hufftabs.o)
 .text          0x00000000037fb6e0     0x1220 /home/oracle/devkitPro/PAlib/source/arm7_mp3/../../lib/libpa7.a(imdct.o)
                0x00000000037fbce0                xmp3_IMDCT
 .text          0x00000000037fc900      0x880 /home/oracle/devkitPro/PAlib/source/arm7_mp3/../../lib/libpa7.a(scalfact.o)
                0x00000000037fc900                xmp3_UnpackScaleFactors
 .text          0x00000000037fd180      0x8a8 /home/oracle/devkitPro/PAlib/source/arm7_mp3/../../lib/libpa7.a(stproc.o)
                0x00000000037fd180                xmp3_MidSideProc
                0x00000000037fd20c                xmp3_IntensityProcMPEG1
                0x00000000037fd668                xmp3_IntensityProcMPEG2
 .text          0x00000000037fda28      0x178 /home/oracle/devkitPro/PAlib/source/arm7_mp3/../../lib/libpa7.a(subband.o)
                0x00000000037fda28                xmp3_Subband
 .text          0x00000000037fdba0        0x0 /home/oracle/devkitPro/PAlib/source/arm7_mp3/../../lib/libpa7.a(trigtabs.o)
 .text          0x00000000037fdba0      0x8b8 /home/oracle/devkitPro/PAlib/source/arm7_mp3/../../lib/libpa7.a(asmpoly_gcc.o)
                0x00000000037fdba0                xmp3_PolyphaseStereo
                0x00000000037fe10c                xmp3_PolyphaseMono
 .text          0x00000000037fe458      0x970 /home/oracle/devkitPro/PAlib/source/arm7_mp3/../../lib/libpa7.a(dct32.o)
                0x00000000037fe458                xmp3_FDCT32
 .text          0x00000000037fedc8      0x3c4 /home/oracle/devkitPro/libnds/lib/libnds7.a(audio.o)
                0x00000000037fedc8                getFreeChannel
                0x00000000037fedec                getFreePSGChannel
                0x00000000037fee10                getFreeNoiseChannel
                0x00000000037fee3c                installSoundFIFO
                0x00000000037fee60                disableSound
                0x00000000037feea4                enableSound
                0x00000000037feee8                soundCommandHandler
                0x00000000037ff000                soundDataHandler
                0x00000000037ff16c                micSwapHandler
 .text          0x00000000037ff18c      0x430 /home/oracle/devkitPro/libnds/lib/libnds7.a(clock.o)
                0x00000000037ff18c                BCDToInteger
                0x00000000037ff1b0                syncRTC
                0x00000000037ff1c0                rtcTransaction
                0x00000000037ff2c0                rtcSetTime
                0x00000000037ff2e8                rtcGetTime
                0x00000000037ff348                rtcSetTimeAndDate
                0x00000000037ff378                rtcGetTimeAndDate
                0x00000000037ff3d8                resyncClock
                0x00000000037ff4c0                rtcReset
                0x00000000037ff500                initClockIRQ
                0x00000000037ff588                integerToBCD
 .text          0x00000000037ff5bc       0xa8 /home/oracle/devkitPro/libnds/lib/libnds7.a(input.o)
                0x00000000037ff5bc                inputGetAndSend
 .text          0x00000000037ff664      0x288 /home/oracle/devkitPro/libnds/lib/libnds7.a(microphone.o)
                0x00000000037ff684                micReadData12
                0x00000000037ff6e4                micReadData8
                0x00000000037ff740                micTimerHandler
                0x00000000037ff7b8                micSetAmp
                0x00000000037ff810                micStopRecording
                0x00000000037ff868                micStartRecording
 .text          0x00000000037ff8ec      0x108 /home/oracle/devkitPro/libnds/lib/libnds7.a(spi.o)
                0x00000000037ff8ec                writePowerManagement
                0x00000000037ff954                readFirmware
 .text          0x00000000037ff9f4      0x140 /home/oracle/devkitPro/libnds/lib/libnds7.a(system.o)
                0x00000000037ff9f4                sleepEnabled
                0x00000000037ffa00                systemShutDown
                0x00000000037ffa10                installSystemFIFO
                0x00000000037ffa28                systemSleep
                0x00000000037ffa58                powerValueHandler
 .text          0x00000000037ffb34      0x5a0 /home/oracle/devkitPro/libnds/lib/libnds7.a(touch.o)
                0x00000000037ffb34                UpdateRange
                0x00000000037ffbbc                readTouchValue
                0x00000000037ffd38                touchRead
                0x00000000037ffda0                touchReadTemperature
                0x00000000037ffdd4                CheckStylus
                0x00000000037ffe68                touchReadXY
 .text          0x00000000038000d4       0xe8 /home/oracle/devkitPro/libnds/lib/libnds7.a(userSettings.o)
                0x00000000038000d4                readUserSettings
 .text          0x00000000038001bc      0xc3c /home/oracle/devkitPro/libnds/lib/libnds7.a(fifosystem.o)
                0x000000000380031c                fifoSendAddress
                0x0000000003800358                fifoSendValue32
                0x000000000380039c                fifoGetAddress
                0x0000000003800408                fifoSetAddressHandler
                0x0000000003800474                fifoGetValue32
                0x00000000038004e0                fifoSetValue32Handler
                0x000000000380054c                fifoCheckAddress
                0x0000000003800570                fifoCheckDatamsg
                0x0000000003800594                fifoCheckValue32
                0x0000000003800648                fifoInit
                0x00000000038007d8                fifoGetDatamsg
                0x0000000003800cf0                fifoSetDatamsgHandler
                0x0000000003800d80                fifoSendDatamsg
 .text          0x0000000003800df8      0x288 /home/oracle/devkitPro/libnds/lib/libnds7.a(interrupts.o)
                0x0000000003800df8                irqDummy
                0x0000000003800dfc                irqSet
                0x0000000003800e70                irqInit
                0x0000000003800ec0                irqInitHandler
                0x0000000003800efc                irqEnable
                0x0000000003800f5c                irqDisable
                0x0000000003800fc0                irqClear
                0x0000000003800ff4                irqSetAUX
                0x000000000380102c                irqClearAUX
                0x0000000003801060                irqDisableAUX
                0x0000000003801070                irqEnableAUX
 .text          0x0000000003801080       0x40 /home/oracle/devkitPro/libnds/lib/libnds7.a(libnds_exit.o)
                0x0000000003801080                systemErrorExit
                0x0000000003801084                __libnds_exit
 .text          0x00000000038010c0       0xf4 /home/oracle/devkitPro/libnds/lib/libnds7.a(timers.o)
                0x00000000038010c0                timerElapsed
                0x00000000038010f4                cpuStartTiming
                0x0000000003801130                cpuEndTiming
                0x000000000380116c                timerStart
 .text          0x00000000038011b4       0x54 /home/oracle/devkitPro/libnds/lib/libnds7.a(intrwait.o)
                0x00000000038011b4                swiWaitForVBlank
                0x00000000038011c4                swiIntrWait
 *fill*         0x0000000003801208        0x8 ff
 .text          0x0000000003801210       0x70 /home/oracle/devkitPro/libnds/lib/libnds7.a(biosCalls.o)
                0x0000000003801210                swiDelay
                0x0000000003801214                swiSleep
                0x0000000003801218                swiChangeSoundBias
                0x000000000380121c                swiDivide
                0x0000000003801220                swiRemainder
                0x0000000003801226                swiDivMod
                0x0000000003801232                swiCopy
                0x0000000003801236                swiFastCopy
                0x000000000380123a                swiSqrt
                0x000000000380123e                swiCRC16
                0x0000000003801242                swiIsDebugger
                0x0000000003801246                swiUnpackBits
                0x000000000380124a                swiDecompressLZSSWram
                0x000000000380124e                swiDecompressLZSSVram
                0x0000000003801252                swiDecompressHuffman
                0x0000000003801256                swiDecompressRLEWram
                0x000000000380125a                swiDecompressRLEVram
                0x000000000380125e                swiHalt
                0x0000000003801262                swiGetSineTable
                0x0000000003801266                swiGetPitchTable
                0x000000000380126a                swiGetVolumeTable
                0x000000000380126e                swiSwitchToGBAMode
                0x0000000003801272                swiSetHaltCR
 .text          0x0000000003801280       0xec /home/oracle/devkitPro/libnds/lib/libnds7.a(interruptDispatcher.o)
                0x0000000003801280                IntrMain
 *fill*         0x000000000380136c        0x4 ff
 .text          0x0000000003801370       0x10 /home/oracle/devkitPro/libnds/lib/libnds7.a(swiSoftReset.o)
                0x0000000003801370                swiSoftReset
 .text          0x0000000003801380      0x144 /home/oracle/devkitPro/devkitARM/bin/../lib/gcc/arm-eabi/4.4.3/libgcc.a(_divsi3.o)
                0x0000000003801380                __aeabi_idiv
                0x0000000003801380                __divsi3
                0x00000000038014ac                __aeabi_idivmod
 .text          0x00000000038014c4        0x4 /home/oracle/devkitPro/devkitARM/bin/../lib/gcc/arm-eabi/4.4.3/libgcc.a(_dvmd_tls.o)
                0x00000000038014c4                __aeabi_ldiv0
                0x00000000038014c4                __div0
                0x00000000038014c4                __aeabi_idiv0
 .text          0x00000000038014c8       0xc8 /home/oracle/devkitPro/devkitARM/bin/../lib/gcc/arm-eabi/4.4.3/../../../../arm-eabi/lib/libg.a(lib_a-init.o)
                0x00000000038014c8                __libc_fini_array
                0x0000000003801510                __libc_init_array
 .text          0x0000000003801590       0x40 /home/oracle/devkitPro/devkitARM/bin/../lib/gcc/arm-eabi/4.4.3/../../../../arm-eabi/lib/libg.a(lib_a-malloc.o)
                0x0000000003801590                free
                0x00000000038015b0                malloc
 .text          0x00000000038015d0      0x71c /home/oracle/devkitPro/devkitARM/bin/../lib/gcc/arm-eabi/4.4.3/../../../../arm-eabi/lib/libg.a(lib_a-mallocr.o)
                0x00000000038015d0                _malloc_r
 .text          0x0000000003801cec       0xf0 /home/oracle/devkitPro/devkitARM/bin/../lib/gcc/arm-eabi/4.4.3/../../../../arm-eabi/lib/libg.a(lib_a-memcpy.o)
                0x0000000003801cec                memcpy
 .text          0x0000000003801ddc      0x12c /home/oracle/devkitPro/devkitARM/bin/../lib/gcc/arm-eabi/4.4.3/../../../../arm-eabi/lib/libg.a(lib_a-memmove.o)
                0x0000000003801ddc                memmove
 .text          0x0000000003801f08       0xf8 /home/oracle/devkitPro/devkitARM/bin/../lib/gcc/arm-eabi/4.4.3/../../../../arm-eabi/lib/libg.a(lib_a-memset.o)
                0x0000000003801f08                memset
 .text          0x0000000003802000        0x8 /home/oracle/devkitPro/devkitARM/bin/../lib/gcc/arm-eabi/4.4.3/../../../../arm-eabi/lib/libg.a(lib_a-mlock.o)
                0x0000000003802000                __malloc_lock
                0x0000000003802004                __malloc_unlock
 .text          0x0000000003802008      0x374 /home/oracle/devkitPro/devkitARM/bin/../lib/gcc/arm-eabi/4.4.3/../../../../arm-eabi/lib/libg.a(lib_a-freer.o)
                0x0000000003802008                _malloc_trim_r
                0x0000000003802104                _free_r
 .text          0x000000000380237c        0x0 /home/oracle/devkitPro/devkitARM/bin/../lib/gcc/arm-eabi/4.4.3/../../../../arm-eabi/lib/libg.a(lib_a-impure.o)
 .text          0x000000000380237c       0x78 /home/oracle/devkitPro/devkitARM/bin/../lib/gcc/arm-eabi/4.4.3/../../../../arm-eabi/lib/libsysbase.a(sbrk.o)
                0x000000000380237c                _sbrk_r
 .text          0x00000000038023f4        0x0 /home/oracle/devkitPro/devkitARM/bin/../lib/gcc/arm-eabi/4.4.3/../../../../arm-eabi/lib/libsysbase.a(malloc_vars.o)
 .text          0x00000000038023f4        0x0 /home/oracle/devkitPro/devkitARM/bin/../lib/gcc/arm-eabi/4.4.3/crtend.o
 .text          0x00000000038023f4        0x0 /home/oracle/devkitPro/devkitARM/bin/../lib/gcc/arm-eabi/4.4.3/crtn.o
 *fill*         0x00000000038023f4        0x4 ff
 .text.stub     0x00000000038023f8      0x120 linker stubs
 *(.text.*personality*)
 *(.gnu.warning)
 *(.glue_7t)
 .glue_7t       0x0000000000000000        0x0 linker stubs
 *(.glue_7)
 .glue_7        0x0000000000000000        0x0 linker stubs
 *(.vfp11_veneer)
 .vfp11_veneer  0x0000000000000000        0x0 linker stubs
                0x0000000003802518                . = ALIGN (0x4)

.v4_bx          0x0000000000000000        0x0
 .v4_bx         0x0000000000000000        0x0 linker stubs

.fini           0x0000000003802568       0x18
 *(.fini)
 .fini          0x0000000003802568        0xc /home/oracle/devkitPro/devkitARM/bin/../lib/gcc/arm-eabi/4.4.3/crti.o
                0x0000000003802568                _fini
 .fini          0x0000000003802574        0xc /home/oracle/devkitPro/devkitARM/bin/../lib/gcc/arm-eabi/4.4.3/crtn.o
                0x0000000003802580                __text_end = .

.rodata         0x0000000003802580     0x3480
 *(.rodata)
 .rodata        0x0000000003802580      0x508 /home/oracle/devkitPro/PAlib/source/arm7_mp3/../../lib/libpa7.a(mp3tabs.o)
                0x0000000003802580                xmp3_samplerateTab
                0x00000000038025a4                xmp3_bitrateTab
                0x00000000038026b4                xmp3_samplesPerFrameTab
                0x00000000038026c8                xmp3_bitsPerSlotTab
                0x00000000038026d0                xmp3_sideBytesTab
                0x00000000038026dc                xmp3_slotTab
                0x00000000038027ec                xmp3_sfBandTable
 .rodata        0x0000000003802a88      0x250 /home/oracle/devkitPro/PAlib/source/arm7_mp3/../../lib/libpa7.a(dqchan.o)
 .rodata        0x0000000003802cd8     0x2304 /home/oracle/devkitPro/PAlib/source/arm7_mp3/../../lib/libpa7.a(hufftabs.o)
                0x0000000003802cd8                xmp3_huffTable
                0x0000000003804dfc                xmp3_huffTabOffset
                0x0000000003804e7c                xmp3_huffTabLookup
                0x0000000003804f7c                xmp3_quadTable
                0x0000000003804fcc                xmp3_quadTabOffset
                0x0000000003804fd4                xmp3_quadTabMaxBits
 .rodata        0x0000000003804fdc       0x6c /home/oracle/devkitPro/PAlib/source/arm7_mp3/../../lib/libpa7.a(imdct.o)
 .rodata        0x0000000003805048       0x68 /home/oracle/devkitPro/PAlib/source/arm7_mp3/../../lib/libpa7.a(scalfact.o)
 .rodata        0x00000000038050b0      0x86c /home/oracle/devkitPro/PAlib/source/arm7_mp3/../../lib/libpa7.a(trigtabs.o)
                0x00000000038050b0                xmp3_imdctWin
                0x00000000038052f0                xmp3_ISFMpeg1
                0x0000000003805328                xmp3_ISFMpeg2
                0x0000000003805428                xmp3_ISFIIP
                0x0000000003805438                xmp3_uniqueIDTab
                0x0000000003805440                xmp3_csa
                0x0000000003805480                xmp3_coef32
                0x00000000038054fc                xmp3_polyCoef
 .rodata        0x000000000380591c       0xc0 /home/oracle/devkitPro/PAlib/source/arm7_mp3/../../lib/libpa7.a(dct32.o)
 .rodata        0x00000000038059dc       0x1c /home/oracle/devkitPro/libnds/lib/libnds7.a(clock.o)
 .rodata        0x00000000038059f8        0x4 /home/oracle/devkitPro/devkitARM/bin/../lib/gcc/arm-eabi/4.4.3/../../../../arm-eabi/lib/libg.a(lib_a-impure.o)
                0x00000000038059f8                _global_impure_ptr
 *all.rodata*(*)
 *(.roda)
 *(.rodata.*)
 .rodata.str1.4
                0x00000000038059fc        0x4 /home/oracle/devkitPro/devkitARM/bin/../lib/gcc/arm-eabi/4.4.3/../../../../arm-eabi/lib/libg.a(lib_a-impure.o)
 *(.gnu.linkonce.r*)
                0x0000000003805a00                . = ALIGN (0x4)

.ARM.extab
 *(.ARM.extab* .gnu.linkonce.armextab.*)
                0x0000000003805a00                __exidx_start = .

.ARM.exidx
 *(.ARM.exidx* .gnu.linkonce.armexidx.*)
                0x0000000003805a00                __exidx_end = .
                0x0000000003805a00                . = ALIGN (0x4)
                0x0000000003805a00                PROVIDE (__preinit_array_start, .)

.preinit_array
 *(.preinit_array)
                0x0000000003805a00                PROVIDE (__preinit_array_end, .)
                0x0000000003805a00                PROVIDE (__init_array_start, .)

.init_array     0x0000000003805a00        0x4
 *(.init_array)
 .init_array    0x0000000003805a00        0x4 /home/oracle/devkitPro/devkitARM/bin/../lib/gcc/arm-eabi/4.4.3/crtbegin.o
                0x0000000003805a04                PROVIDE (__init_array_end, .)
                0x0000000003805a04                PROVIDE (__fini_array_start, .)

.fini_array     0x0000000003805a04        0x4
 *(.fini_array)
 .fini_array    0x0000000003805a04        0x4 /home/oracle/devkitPro/devkitARM/bin/../lib/gcc/arm-eabi/4.4.3/crtbegin.o
                0x0000000003805a08                PROVIDE (__fini_array_end, .)

.ctors          0x0000000003805a08        0x0
 *crtbegin.o(.ctors)
 *(EXCLUDE_FILE(*crtend.o) .ctors)
 *(SORT(.ctors.*))
 *(.ctors)
                0x0000000003805a08                . = ALIGN (0x4)

.dtors          0x0000000003805a08        0x0
 *crtbegin.o(.dtors)
 *(EXCLUDE_FILE(*crtend.o) .dtors)
 *(SORT(.dtors.*))
 *(.dtors)
                0x0000000003805a08                . = ALIGN (0x4)

.eh_frame       0x0000000003805a08        0x4
 *(.eh_frame)
 .eh_frame      0x0000000003805a08        0x0 /home/oracle/devkitPro/devkitARM/bin/../lib/gcc/arm-eabi/4.4.3/crtbegin.o
 .eh_frame      0x0000000003805a08        0x4 /home/oracle/devkitPro/devkitARM/bin/../lib/gcc/arm-eabi/4.4.3/crtend.o
                0x0000000003805a0c                . = ALIGN (0x4)

.gcc_except_table
                0x0000000003805a0c        0x0
 *(.gcc_except_table)
                0x0000000003805a0c                . = ALIGN (0x4)

.jcr            0x0000000003805a0c        0x4
 *(.jcr)
 .jcr           0x0000000003805a0c        0x0 /home/oracle/devkitPro/devkitARM/bin/../lib/gcc/arm-eabi/4.4.3/crtbegin.o
 .jcr           0x0000000003805a0c        0x4 /home/oracle/devkitPro/devkitARM/bin/../lib/gcc/arm-eabi/4.4.3/crtend.o

.got
 *(.got.plt)
 *(.got)

.iwram          0x0000000003805a10        0x0
                0x0000000003805a10                __iwram_start = ABSOLUTE (.)
 *(.iwram)
 *iwram.*(.text)
                0x0000000003805a10                . = ALIGN (0x4)
                0x0000000003805a10                __iwram_end = ABSOLUTE (.)

.data           0x0000000003805a10      0x858
                0x0000000003805a10                __data_start = ABSOLUTE (.)
 *(.data)
 .data          0x0000000003805a10        0x0 /home/oracle/devkitPro/devkitARM/bin/../lib/gcc/arm-eabi/4.4.3/../../../../arm-eabi/lib/ds_arm7_crt0.o
 .data          0x0000000003805a10        0x0 /home/oracle/devkitPro/devkitARM/bin/../lib/gcc/arm-eabi/4.4.3/crti.o
 .data          0x0000000003805a10        0x4 /home/oracle/devkitPro/devkitARM/bin/../lib/gcc/arm-eabi/4.4.3/crtbegin.o
                0x0000000003805a10                __dso_handle
 .data          0x0000000003805a14        0x0 main.o
 .data          0x0000000003805a14        0x0 /home/oracle/devkitPro/PAlib/source/arm7_mp3/../../lib/libpa7.a(as_lib7.o)
 .data          0x0000000003805a14        0x0 /home/oracle/devkitPro/PAlib/source/arm7_mp3/../../lib/libpa7.a(PA.o)
 .data          0x0000000003805a14        0x0 /home/oracle/devkitPro/PAlib/source/arm7_mp3/../../lib/libpa7.a(PA_Fifo.o)
 .data          0x0000000003805a14        0x0 /home/oracle/devkitPro/PAlib/source/arm7_mp3/../../lib/libpa7.a(PA_Input.o)
 .data          0x0000000003805a14        0x0 /home/oracle/devkitPro/PAlib/source/arm7_mp3/../../lib/libpa7.a(PA_Legacy.o)
 .data          0x0000000003805a14        0x0 /home/oracle/devkitPro/PAlib/source/arm7_mp3/../../lib/libpa7.a(PA_Mic.o)
 .data          0x0000000003805a14        0x0 /home/oracle/devkitPro/PAlib/source/arm7_mp3/../../lib/libpa7.a(PA_PSG.o)
 .data          0x0000000003805a14        0x0 /home/oracle/devkitPro/PAlib/source/arm7_mp3/../../lib/libpa7.a(mp3dec.o)
 .data          0x0000000003805a14        0x0 /home/oracle/devkitPro/PAlib/source/arm7_mp3/../../lib/libpa7.a(mp3tabs.o)
 .data          0x0000000003805a14        0x0 /home/oracle/devkitPro/PAlib/source/arm7_mp3/../../lib/libpa7.a(bitstream.o)
 .data          0x0000000003805a14        0x0 /home/oracle/devkitPro/PAlib/source/arm7_mp3/../../lib/libpa7.a(buffers.o)
 .data          0x0000000003805a14        0x0 /home/oracle/devkitPro/PAlib/source/arm7_mp3/../../lib/libpa7.a(dequant.o)
 .data          0x0000000003805a14        0x0 /home/oracle/devkitPro/PAlib/source/arm7_mp3/../../lib/libpa7.a(dqchan.o)
 .data          0x0000000003805a14        0x0 /home/oracle/devkitPro/PAlib/source/arm7_mp3/../../lib/libpa7.a(huffman.o)
 .data          0x0000000003805a14        0x0 /home/oracle/devkitPro/PAlib/source/arm7_mp3/../../lib/libpa7.a(hufftabs.o)
 .data          0x0000000003805a14        0x0 /home/oracle/devkitPro/PAlib/source/arm7_mp3/../../lib/libpa7.a(imdct.o)
 .data          0x0000000003805a14        0x0 /home/oracle/devkitPro/PAlib/source/arm7_mp3/../../lib/libpa7.a(scalfact.o)
 .data          0x0000000003805a14        0x0 /home/oracle/devkitPro/PAlib/source/arm7_mp3/../../lib/libpa7.a(stproc.o)
 .data          0x0000000003805a14        0x0 /home/oracle/devkitPro/PAlib/source/arm7_mp3/../../lib/libpa7.a(subband.o)
 .data          0x0000000003805a14        0x0 /home/oracle/devkitPro/PAlib/source/arm7_mp3/../../lib/libpa7.a(trigtabs.o)
 .data          0x0000000003805a14        0x0 /home/oracle/devkitPro/PAlib/source/arm7_mp3/../../lib/libpa7.a(asmpoly_gcc.o)
 .data          0x0000000003805a14        0x0 /home/oracle/devkitPro/PAlib/source/arm7_mp3/../../lib/libpa7.a(dct32.o)
 .data          0x0000000003805a14        0x0 /home/oracle/devkitPro/libnds/lib/libnds7.a(audio.o)
 .data          0x0000000003805a14        0x0 /home/oracle/devkitPro/libnds/lib/libnds7.a(clock.o)
 .data          0x0000000003805a14        0x0 /home/oracle/devkitPro/libnds/lib/libnds7.a(input.o)
 .data          0x0000000003805a14        0x1 /home/oracle/devkitPro/libnds/lib/libnds7.a(microphone.o)
 .data          0x0000000003805a15        0x0 /home/oracle/devkitPro/libnds/lib/libnds7.a(spi.o)
 .data          0x0000000003805a15        0x1 /home/oracle/devkitPro/libnds/lib/libnds7.a(system.o)
                0x0000000003805a15                sleepIsEnabled
 .data          0x0000000003805a16        0x1 /home/oracle/devkitPro/libnds/lib/libnds7.a(touch.o)
 .data          0x0000000003805a17        0x0 /home/oracle/devkitPro/libnds/lib/libnds7.a(userSettings.o)
 *fill*         0x0000000003805a17        0x1 ff
 .data          0x0000000003805a18       0x10 /home/oracle/devkitPro/libnds/lib/libnds7.a(fifosystem.o)
                0x0000000003805a18                fifo_freewords
                0x0000000003805a1c                fifo_send_queue
                0x0000000003805a20                fifo_buffer_free
                0x0000000003805a24                fifo_receive_queue
 .data          0x0000000003805a28        0x0 /home/oracle/devkitPro/libnds/lib/libnds7.a(interrupts.o)
 .data          0x0000000003805a28        0x0 /home/oracle/devkitPro/libnds/lib/libnds7.a(libnds_exit.o)
 .data          0x0000000003805a28        0x0 /home/oracle/devkitPro/libnds/lib/libnds7.a(timers.o)
 .data          0x0000000003805a28        0x0 /home/oracle/devkitPro/libnds/lib/libnds7.a(intrwait.o)
 .data          0x0000000003805a28        0x0 /home/oracle/devkitPro/libnds/lib/libnds7.a(biosCalls.o)
 .data          0x0000000003805a28        0x0 /home/oracle/devkitPro/libnds/lib/libnds7.a(interruptDispatcher.o)
 .data          0x0000000003805a28        0x0 /home/oracle/devkitPro/libnds/lib/libnds7.a(swiSoftReset.o)
 .data          0x0000000003805a28        0x0 /home/oracle/devkitPro/devkitARM/bin/../lib/gcc/arm-eabi/4.4.3/libgcc.a(_divsi3.o)
 .data          0x0000000003805a28        0x0 /home/oracle/devkitPro/devkitARM/bin/../lib/gcc/arm-eabi/4.4.3/libgcc.a(_dvmd_tls.o)
 .data          0x0000000003805a28        0x0 /home/oracle/devkitPro/devkitARM/bin/../lib/gcc/arm-eabi/4.4.3/../../../../arm-eabi/lib/libg.a(lib_a-init.o)
 .data          0x0000000003805a28        0x0 /home/oracle/devkitPro/devkitARM/bin/../lib/gcc/arm-eabi/4.4.3/../../../../arm-eabi/lib/libg.a(lib_a-malloc.o)
 .data          0x0000000003805a28      0x410 /home/oracle/devkitPro/devkitARM/bin/../lib/gcc/arm-eabi/4.4.3/../../../../arm-eabi/lib/libg.a(lib_a-mallocr.o)
                0x0000000003805a28                __malloc_av_
                0x0000000003805e30                __malloc_sbrk_base
                0x0000000003805e34                __malloc_trim_threshold
 .data          0x0000000003805e38        0x0 /home/oracle/devkitPro/devkitARM/bin/../lib/gcc/arm-eabi/4.4.3/../../../../arm-eabi/lib/libg.a(lib_a-memcpy.o)
 .data          0x0000000003805e38        0x0 /home/oracle/devkitPro/devkitARM/bin/../lib/gcc/arm-eabi/4.4.3/../../../../arm-eabi/lib/libg.a(lib_a-memmove.o)
 .data          0x0000000003805e38        0x0 /home/oracle/devkitPro/devkitARM/bin/../lib/gcc/arm-eabi/4.4.3/../../../../arm-eabi/lib/libg.a(lib_a-memset.o)
 .data          0x0000000003805e38        0x0 /home/oracle/devkitPro/devkitARM/bin/../lib/gcc/arm-eabi/4.4.3/../../../../arm-eabi/lib/libg.a(lib_a-mlock.o)
 .data          0x0000000003805e38        0x0 /home/oracle/devkitPro/devkitARM/bin/../lib/gcc/arm-eabi/4.4.3/../../../../arm-eabi/lib/libg.a(lib_a-freer.o)
 *fill*         0x0000000003805e38        0x0 ff
 .data          0x0000000003805e38      0x430 /home/oracle/devkitPro/devkitARM/bin/../lib/gcc/arm-eabi/4.4.3/../../../../arm-eabi/lib/libg.a(lib_a-impure.o)
                0x0000000003805e38                _impure_ptr
 .data          0x0000000003806268        0x0 /home/oracle/devkitPro/devkitARM/bin/../lib/gcc/arm-eabi/4.4.3/../../../../arm-eabi/lib/libsysbase.a(sbrk.o)
 .data          0x0000000003806268        0x0 /home/oracle/devkitPro/devkitARM/bin/../lib/gcc/arm-eabi/4.4.3/../../../../arm-eabi/lib/libsysbase.a(malloc_vars.o)
 .data          0x0000000003806268        0x0 /home/oracle/devkitPro/devkitARM/bin/../lib/gcc/arm-eabi/4.4.3/crtend.o
 .data          0x0000000003806268        0x0 /home/oracle/devkitPro/devkitARM/bin/../lib/gcc/arm-eabi/4.4.3/crtn.o
 *(.data.*)
 *(.gnu.linkonce.d*)
                0x0000000003806268                . = ALIGN (0x4)
                0x0000000003806268                __data_end = ABSOLUTE (.)

.bss            0x0000000003806268     0x3660
                0x0000000003806268                __bss_start = ABSOLUTE (.)
                0x0000000003806268                __bss_start__ = ABSOLUTE (.)
 *(.dynbss)
 *(.gnu.linkonce.b*)
 *(.bss*)
 .bss           0x0000000003806268        0x0 /home/oracle/devkitPro/devkitARM/bin/../lib/gcc/arm-eabi/4.4.3/../../../../arm-eabi/lib/ds_arm7_crt0.o
 .bss           0x0000000003806268        0x0 /home/oracle/devkitPro/devkitARM/bin/../lib/gcc/arm-eabi/4.4.3/crti.o
 .bss           0x0000000003806268       0x1c /home/oracle/devkitPro/devkitARM/bin/../lib/gcc/arm-eabi/4.4.3/crtbegin.o
 .bss           0x0000000003806284        0x0 main.o
 .bss           0x0000000003806284        0x0 /home/oracle/devkitPro/PAlib/source/arm7_mp3/../../lib/libpa7.a(as_lib7.o)
 .bss           0x0000000003806284        0x0 /home/oracle/devkitPro/PAlib/source/arm7_mp3/../../lib/libpa7.a(PA.o)
 .bss           0x0000000003806284        0x0 /home/oracle/devkitPro/PAlib/source/arm7_mp3/../../lib/libpa7.a(PA_Fifo.o)
 .bss           0x0000000003806284        0x1 /home/oracle/devkitPro/PAlib/source/arm7_mp3/../../lib/libpa7.a(PA_Input.o)
 *fill*         0x0000000003806285        0x3 00
 .bss           0x0000000003806288      0x19c /home/oracle/devkitPro/PAlib/source/arm7_mp3/../../lib/libpa7.a(PA_Legacy.o)
                0x0000000003806420                PA_LegacyInit
 .bss           0x0000000003806424        0x8 /home/oracle/devkitPro/PAlib/source/arm7_mp3/../../lib/libpa7.a(PA_Mic.o)
                0x0000000003806424                PA_MicBuffer
                0x0000000003806428                PA_MicBufferLen
 .bss           0x000000000380642c        0x0 /home/oracle/devkitPro/PAlib/source/arm7_mp3/../../lib/libpa7.a(PA_PSG.o)
 .bss           0x000000000380642c        0x0 /home/oracle/devkitPro/PAlib/source/arm7_mp3/../../lib/libpa7.a(mp3dec.o)
 .bss           0x000000000380642c        0x0 /home/oracle/devkitPro/PAlib/source/arm7_mp3/../../lib/libpa7.a(mp3tabs.o)
 .bss           0x000000000380642c        0x0 /home/oracle/devkitPro/PAlib/source/arm7_mp3/../../lib/libpa7.a(bitstream.o)
 .bss           0x000000000380642c     0x1a00 /home/oracle/devkitPro/PAlib/source/arm7_mp3/../../lib/libpa7.a(buffers.o)
 .bss           0x0000000003807e2c        0x0 /home/oracle/devkitPro/PAlib/source/arm7_mp3/../../lib/libpa7.a(dequant.o)
 .bss           0x0000000003807e2c        0x0 /home/oracle/devkitPro/PAlib/source/arm7_mp3/../../lib/libpa7.a(dqchan.o)
 .bss           0x0000000003807e2c        0x0 /home/oracle/devkitPro/PAlib/source/arm7_mp3/../../lib/libpa7.a(huffman.o)
 .bss           0x0000000003807e2c        0x0 /home/oracle/devkitPro/PAlib/source/arm7_mp3/../../lib/libpa7.a(hufftabs.o)
 .bss           0x0000000003807e2c        0x0 /home/oracle/devkitPro/PAlib/source/arm7_mp3/../../lib/libpa7.a(imdct.o)
 .bss           0x0000000003807e2c        0x0 /home/oracle/devkitPro/PAlib/source/arm7_mp3/../../lib/libpa7.a(scalfact.o)
 .bss           0x0000000003807e2c        0x0 /home/oracle/devkitPro/PAlib/source/arm7_mp3/../../lib/libpa7.a(stproc.o)
 .bss           0x0000000003807e2c        0x0 /home/oracle/devkitPro/PAlib/source/arm7_mp3/../../lib/libpa7.a(subband.o)
 .bss           0x0000000003807e2c        0x0 /home/oracle/devkitPro/PAlib/source/arm7_mp3/../../lib/libpa7.a(trigtabs.o)
 .bss           0x0000000003807e2c        0x0 /home/oracle/devkitPro/PAlib/source/arm7_mp3/../../lib/libpa7.a(asmpoly_gcc.o)
 .bss           0x0000000003807e2c        0x0 /home/oracle/devkitPro/PAlib/source/arm7_mp3/../../lib/libpa7.a(dct32.o)
 .bss           0x0000000003807e2c        0x0 /home/oracle/devkitPro/libnds/lib/libnds7.a(audio.o)
 .bss           0x0000000003807e2c        0x0 /home/oracle/devkitPro/libnds/lib/libnds7.a(clock.o)
 .bss           0x0000000003807e2c        0x8 /home/oracle/devkitPro/libnds/lib/libnds7.a(input.o)
 .bss           0x0000000003807e34       0x20 /home/oracle/devkitPro/libnds/lib/libnds7.a(microphone.o)
 .bss           0x0000000003807e54        0x0 /home/oracle/devkitPro/libnds/lib/libnds7.a(spi.o)
 .bss           0x0000000003807e54        0x0 /home/oracle/devkitPro/libnds/lib/libnds7.a(system.o)
 .bss           0x0000000003807e54       0x14 /home/oracle/devkitPro/libnds/lib/libnds7.a(touch.o)
 .bss           0x0000000003807e68        0x0 /home/oracle/devkitPro/libnds/lib/libnds7.a(userSettings.o)
 .bss           0x0000000003807e68        0x8 /home/oracle/devkitPro/libnds/lib/libnds7.a(fifosystem.o)
                0x0000000003807e6c                processing
 .bss           0x0000000003807e70        0x0 /home/oracle/devkitPro/libnds/lib/libnds7.a(interrupts.o)
 .bss           0x0000000003807e70        0x0 /home/oracle/devkitPro/libnds/lib/libnds7.a(libnds_exit.o)
 .bss           0x0000000003807e70        0xc /home/oracle/devkitPro/libnds/lib/libnds7.a(timers.o)
                0x0000000003807e70                elapsed
 .bss           0x0000000003807e7c        0x0 /home/oracle/devkitPro/libnds/lib/libnds7.a(intrwait.o)
 .bss           0x0000000003807e7c        0x0 /home/oracle/devkitPro/libnds/lib/libnds7.a(biosCalls.o)
 .bss           0x0000000003807e7c        0x0 /home/oracle/devkitPro/libnds/lib/libnds7.a(interruptDispatcher.o)
 .bss           0x0000000003807e7c        0x0 /home/oracle/devkitPro/libnds/lib/libnds7.a(swiSoftReset.o)
 .bss           0x0000000003807e7c        0x0 /home/oracle/devkitPro/devkitARM/bin/../lib/gcc/arm-eabi/4.4.3/libgcc.a(_divsi3.o)
 .bss           0x0000000003807e7c        0x0 /home/oracle/devkitPro/devkitARM/bin/../lib/gcc/arm-eabi/4.4.3/libgcc.a(_dvmd_tls.o)
 .bss           0x0000000003807e7c        0x0 /home/oracle/devkitPro/devkitARM/bin/../lib/gcc/arm-eabi/4.4.3/../../../../arm-eabi/lib/libg.a(lib_a-init.o)
 .bss           0x0000000003807e7c        0x0 /home/oracle/devkitPro/devkitARM/bin/../lib/gcc/arm-eabi/4.4.3/../../../../arm-eabi/lib/libg.a(lib_a-malloc.o)
 .bss           0x0000000003807e7c       0x34 /home/oracle/devkitPro/devkitARM/bin/../lib/gcc/arm-eabi/4.4.3/../../../../arm-eabi/lib/libg.a(lib_a-mallocr.o)
                0x0000000003807e7c                __malloc_top_pad
                0x0000000003807e80                __malloc_current_mallinfo
                0x0000000003807ea8                __malloc_max_sbrked_mem
                0x0000000003807eac                __malloc_max_total_mem
 .bss           0x0000000003807eb0        0x0 /home/oracle/devkitPro/devkitARM/bin/../lib/gcc/arm-eabi/4.4.3/../../../../arm-eabi/lib/libg.a(lib_a-memcpy.o)
 .bss           0x0000000003807eb0        0x0 /home/oracle/devkitPro/devkitARM/bin/../lib/gcc/arm-eabi/4.4.3/../../../../arm-eabi/lib/libg.a(lib_a-memmove.o)
 .bss           0x0000000003807eb0        0x0 /home/oracle/devkitPro/devkitARM/bin/../lib/gcc/arm-eabi/4.4.3/../../../../arm-eabi/lib/libg.a(lib_a-memset.o)
 .bss           0x0000000003807eb0        0x0 /home/oracle/devkitPro/devkitARM/bin/../lib/gcc/arm-eabi/4.4.3/../../../../arm-eabi/lib/libg.a(lib_a-mlock.o)
 .bss           0x0000000003807eb0        0x0 /home/oracle/devkitPro/devkitARM/bin/../lib/gcc/arm-eabi/4.4.3/../../../../arm-eabi/lib/libg.a(lib_a-freer.o)
 .bss           0x0000000003807eb0        0x0 /home/oracle/devkitPro/devkitARM/bin/../lib/gcc/arm-eabi/4.4.3/../../../../arm-eabi/lib/libg.a(lib_a-impure.o)
 .bss           0x0000000003807eb0        0x4 /home/oracle/devkitPro/devkitARM/bin/../lib/gcc/arm-eabi/4.4.3/../../../../arm-eabi/lib/libsysbase.a(sbrk.o)
 .bss           0x0000000003807eb4        0x8 /home/oracle/devkitPro/devkitARM/bin/../lib/gcc/arm-eabi/4.4.3/../../../../arm-eabi/lib/libsysbase.a(malloc_vars.o)
                0x0000000003807eb4                fake_heap_end
                0x0000000003807eb8                fake_heap_start
 .bss           0x0000000003807ebc        0x0 /home/oracle/devkitPro/devkitARM/bin/../lib/gcc/arm-eabi/4.4.3/crtend.o
 .bss           0x0000000003807ebc        0x0 /home/oracle/devkitPro/devkitARM/bin/../lib/gcc/arm-eabi/4.4.3/crtn.o
 *(COMMON)
 COMMON         0x0000000003807ebc     0x1234 /home/oracle/devkitPro/PAlib/source/arm7_mp3/../../lib/libpa7.a(as_lib7.o)
                0x0000000003807ebc                nAudioBufStart
                0x0000000003807ec0                audioBuf
                0x00000000038090c0                hMP3Decoder
                0x00000000038090c4                readPtr
                0x00000000038090c8                bytesLeft
                0x00000000038090cc                stereo
                0x00000000038090d0                nAudioBuf
                0x00000000038090d4                mp3FrameInfo
 COMMON         0x00000000038090f0        0x4 /home/oracle/devkitPro/PAlib/source/arm7_mp3/../../lib/libpa7.a(PA_Legacy.o)
                0x00000000038090f0                PA_IPC
 COMMON         0x00000000038090f4        0x1 /home/oracle/devkitPro/libnds/lib/libnds7.a(input.o)
                0x00000000038090f4                Keys
 *fill*         0x00000000038090f5        0x3 00
 COMMON         0x00000000038090f8      0x640 /home/oracle/devkitPro/libnds/lib/libnds7.a(fifosystem.o)
                0x00000000038090f8                fifo_datamsg_data
                0x0000000003809138                fifo_buffer
                0x0000000003809538                fifo_value32_func
                0x0000000003809578                fifo_address_func
                0x00000000038095b8                fifo_value32_data
                0x00000000038095f8                fifo_value32_queue
                0x0000000003809638                fifo_data_queue
                0x0000000003809678                fifo_address_data
                0x00000000038096b8                fifo_datamsg_func
                0x00000000038096f8                fifo_address_queue
 COMMON         0x0000000003809738      0x190 /home/oracle/devkitPro/libnds/lib/libnds7.a(interrupts.o)
                0x0000000003809738                irqTableAUX
                0x0000000003809800                irqTable
                0x00000000038098c8                . = ALIGN (0x4)
                0x00000000038098c8                __bss_end = .
                0x00000000038098c8                __bss_end__ = .
                0x00000000038098c8                _end = .
                0x00000000038098c8                __end__ = .
                0x00000000038098c8                PROVIDE (end, _end)

.stab
 *(.stab)

.stabstr
 *(.stabstr)

.stab.excl
 *(.stab.excl)

.stab.exclstr
 *(.stab.exclstr)

.stab.index
 *(.stab.index)

.stab.indexstr
 *(.stab.indexstr)

.ARM.attributes
                0x0000000000000000       0x2c
 .ARM.attributes
                0x0000000000000000       0x20 /home/oracle/devkitPro/devkitARM/bin/../lib/gcc/arm-eabi/4.4.3/../../../../arm-eabi/lib/ds_arm7_crt0.o
 .ARM.attributes
                0x0000000000000020       0x20 /home/oracle/devkitPro/devkitARM/bin/../lib/gcc/arm-eabi/4.4.3/crti.o
 .ARM.attributes
                0x0000000000000040       0x30 /home/oracle/devkitPro/devkitARM/bin/../lib/gcc/arm-eabi/4.4.3/crtbegin.o
 .ARM.attributes
                0x0000000000000070       0x2c main.o
 .ARM.attributes
                0x000000000000009c       0x2c /home/oracle/devkitPro/PAlib/source/arm7_mp3/../../lib/libpa7.a(as_lib7.o)
 .ARM.attributes
                0x00000000000000c8       0x2c /home/oracle/devkitPro/PAlib/source/arm7_mp3/../../lib/libpa7.a(PA.o)
 .ARM.attributes
                0x00000000000000f4       0x2c /home/oracle/devkitPro/PAlib/source/arm7_mp3/../../lib/libpa7.a(PA_Fifo.o)
 .ARM.attributes
                0x0000000000000120       0x2c /home/oracle/devkitPro/PAlib/source/arm7_mp3/../../lib/libpa7.a(PA_Input.o)
 .ARM.attributes
                0x000000000000014c       0x2c /home/oracle/devkitPro/PAlib/source/arm7_mp3/../../lib/libpa7.a(PA_Legacy.o)
 .ARM.attributes
                0x0000000000000178       0x2c /home/oracle/devkitPro/PAlib/source/arm7_mp3/../../lib/libpa7.a(PA_Mic.o)
 .ARM.attributes
                0x00000000000001a4       0x2c /home/oracle/devkitPro/PAlib/source/arm7_mp3/../../lib/libpa7.a(PA_PSG.o)
 .ARM.attributes
                0x00000000000001d0       0x2c /home/oracle/devkitPro/PAlib/source/arm7_mp3/../../lib/libpa7.a(mp3dec.o)
 .ARM.attributes
                0x00000000000001fc       0x2c /home/oracle/devkitPro/PAlib/source/arm7_mp3/../../lib/libpa7.a(mp3tabs.o)
 .ARM.attributes
                0x0000000000000228       0x2c /home/oracle/devkitPro/PAlib/source/arm7_mp3/../../lib/libpa7.a(bitstream.o)
 .ARM.attributes
                0x0000000000000254       0x2c /home/oracle/devkitPro/PAlib/source/arm7_mp3/../../lib/libpa7.a(buffers.o)
 .ARM.attributes
                0x0000000000000280       0x2c /home/oracle/devkitPro/PAlib/source/arm7_mp3/../../lib/libpa7.a(dequant.o)
 .ARM.attributes
                0x00000000000002ac       0x2c /home/oracle/devkitPro/PAlib/source/arm7_mp3/../../lib/libpa7.a(dqchan.o)
 .ARM.attributes
                0x00000000000002d8       0x2c /home/oracle/devkitPro/PAlib/source/arm7_mp3/../../lib/libpa7.a(huffman.o)
 .ARM.attributes
                0x0000000000000304       0x2c /home/oracle/devkitPro/PAlib/source/arm7_mp3/../../lib/libpa7.a(hufftabs.o)
 .ARM.attributes
                0x0000000000000330       0x2c /home/oracle/devkitPro/PAlib/source/arm7_mp3/../../lib/libpa7.a(imdct.o)
 .ARM.attributes
                0x000000000000035c       0x2c /home/oracle/devkitPro/PAlib/source/arm7_mp3/../../lib/libpa7.a(scalfact.o)
 .ARM.attributes
                0x0000000000000388       0x2c /home/oracle/devkitPro/PAlib/source/arm7_mp3/../../lib/libpa7.a(stproc.o)
 .ARM.attributes
                0x00000000000003b4       0x2c /home/oracle/devkitPro/PAlib/source/arm7_mp3/../../lib/libpa7.a(subband.o)
 .ARM.attributes
                0x00000000000003e0       0x2c /home/oracle/devkitPro/PAlib/source/arm7_mp3/../../lib/libpa7.a(trigtabs.o)
 .ARM.attributes
                0x000000000000040c       0x20 /home/oracle/devkitPro/PAlib/source/arm7_mp3/../../lib/libpa7.a(asmpoly_gcc.o)
 .ARM.attributes
                0x000000000000042c       0x2c /home/oracle/devkitPro/PAlib/source/arm7_mp3/../../lib/libpa7.a(dct32.o)
 .ARM.attributes
                0x0000000000000458       0x2c /home/oracle/devkitPro/libnds/lib/libnds7.a(audio.o)
 .ARM.attributes
                0x0000000000000484       0x2c /home/oracle/devkitPro/libnds/lib/libnds7.a(clock.o)
 .ARM.attributes
                0x00000000000004b0       0x2c /home/oracle/devkitPro/libnds/lib/libnds7.a(input.o)
 .ARM.attributes
                0x00000000000004dc       0x2c /home/oracle/devkitPro/libnds/lib/libnds7.a(microphone.o)
 .ARM.attributes
                0x0000000000000508       0x2c /home/oracle/devkitPro/libnds/lib/libnds7.a(spi.o)
 .ARM.attributes
                0x0000000000000534       0x2c /home/oracle/devkitPro/libnds/lib/libnds7.a(system.o)
 .ARM.attributes
                0x0000000000000560       0x2c /home/oracle/devkitPro/libnds/lib/libnds7.a(touch.o)
 .ARM.attributes
                0x000000000000058c       0x2c /home/oracle/devkitPro/libnds/lib/libnds7.a(userSettings.o)
 .ARM.attributes
                0x00000000000005b8       0x2c /home/oracle/devkitPro/libnds/lib/libnds7.a(fifosystem.o)
 .ARM.attributes
                0x00000000000005e4       0x2c /home/oracle/devkitPro/libnds/lib/libnds7.a(interrupts.o)
 .ARM.attributes
                0x0000000000000610       0x2c /home/oracle/devkitPro/libnds/lib/libnds7.a(libnds_exit.o)
 .ARM.attributes
                0x000000000000063c       0x2c /home/oracle/devkitPro/libnds/lib/libnds7.a(timers.o)
 .ARM.attributes
                0x0000000000000668       0x20 /home/oracle/devkitPro/libnds/lib/libnds7.a(intrwait.o)
 .ARM.attributes
                0x0000000000000688       0x20 /home/oracle/devkitPro/libnds/lib/libnds7.a(biosCalls.o)
 .ARM.attributes
                0x00000000000006a8       0x20 /home/oracle/devkitPro/libnds/lib/libnds7.a(interruptDispatcher.o)
 .ARM.attributes
                0x00000000000006c8       0x20 /home/oracle/devkitPro/libnds/lib/libnds7.a(swiSoftReset.o)
 .ARM.attributes
                0x00000000000006e8       0x20 /home/oracle/devkitPro/devkitARM/bin/../lib/gcc/arm-eabi/4.4.3/libgcc.a(_divsi3.o)
 .ARM.attributes
                0x0000000000000708       0x20 /home/oracle/devkitPro/devkitARM/bin/../lib/gcc/arm-eabi/4.4.3/libgcc.a(_dvmd_tls.o)
 .ARM.attributes
                0x0000000000000728       0x30 /home/oracle/devkitPro/devkitARM/bin/../lib/gcc/arm-eabi/4.4.3/../../../../arm-eabi/lib/libg.a(lib_a-init.o)
 .ARM.attributes
                0x0000000000000758       0x30 /home/oracle/devkitPro/devkitARM/bin/../lib/gcc/arm-eabi/4.4.3/../../../../arm-eabi/lib/libg.a(lib_a-malloc.o)
 .ARM.attributes
                0x0000000000000788       0x30 /home/oracle/devkitPro/devkitARM/bin/../lib/gcc/arm-eabi/4.4.3/../../../../arm-eabi/lib/libg.a(lib_a-mallocr.o)
 .ARM.attributes
                0x00000000000007b8       0x30 /home/oracle/devkitPro/devkitARM/bin/../lib/gcc/arm-eabi/4.4.3/../../../../arm-eabi/lib/libg.a(lib_a-memcpy.o)
 .ARM.attributes
                0x00000000000007e8       0x30 /home/oracle/devkitPro/devkitARM/bin/../lib/gcc/arm-eabi/4.4.3/../../../../arm-eabi/lib/libg.a(lib_a-memmove.o)
 .ARM.attributes
                0x0000000000000818       0x30 /home/oracle/devkitPro/devkitARM/bin/../lib/gcc/arm-eabi/4.4.3/../../../../arm-eabi/lib/libg.a(lib_a-memset.o)
 .ARM.attributes
                0x0000000000000848       0x30 /home/oracle/devkitPro/devkitARM/bin/../lib/gcc/arm-eabi/4.4.3/../../../../arm-eabi/lib/libg.a(lib_a-mlock.o)
 .ARM.attributes
                0x0000000000000878       0x30 /home/oracle/devkitPro/devkitARM/bin/../lib/gcc/arm-eabi/4.4.3/../../../../arm-eabi/lib/libg.a(lib_a-freer.o)
 .ARM.attributes
                0x00000000000008a8       0x30 /home/oracle/devkitPro/devkitARM/bin/../lib/gcc/arm-eabi/4.4.3/../../../../arm-eabi/lib/libg.a(lib_a-impure.o)
 .ARM.attributes
                0x00000000000008d8       0x30 /home/oracle/devkitPro/devkitARM/bin/../lib/gcc/arm-eabi/4.4.3/../../../../arm-eabi/lib/libsysbase.a(sbrk.o)
 .ARM.attributes
                0x0000000000000908       0x30 /home/oracle/devkitPro/devkitARM/bin/../lib/gcc/arm-eabi/4.4.3/../../../../arm-eabi/lib/libsysbase.a(malloc_vars.o)
 .ARM.attributes
                0x0000000000000938       0x30 /home/oracle/devkitPro/devkitARM/bin/../lib/gcc/arm-eabi/4.4.3/crtend.o
 .ARM.attributes
                0x0000000000000968       0x20 /home/oracle/devkitPro/devkitARM/bin/../lib/gcc/arm-eabi/4.4.3/crtn.o

.comment        0x0000000000000000       0x44
 *(.comment)
 .comment       0x0000000000000000       0x22 /home/oracle/devkitPro/devkitARM/bin/../lib/gcc/arm-eabi/4.4.3/crtbegin.o
                                         0x23 (size before relaxing)
 .comment       0x0000000000000000       0x23 main.o
 .comment       0x0000000000000000       0x23 /home/oracle/devkitPro/PAlib/source/arm7_mp3/../../lib/libpa7.a(as_lib7.o)
 .comment       0x0000000000000000       0x23 /home/oracle/devkitPro/PAlib/source/arm7_mp3/../../lib/libpa7.a(PA.o)
 .comment       0x0000000000000000       0x23 /home/oracle/devkitPro/PAlib/source/arm7_mp3/../../lib/libpa7.a(PA_Fifo.o)
 .comment       0x0000000000000000       0x23 /home/oracle/devkitPro/PAlib/source/arm7_mp3/../../lib/libpa7.a(PA_Input.o)
 .comment       0x0000000000000000       0x23 /home/oracle/devkitPro/PAlib/source/arm7_mp3/../../lib/libpa7.a(PA_Legacy.o)
 .comment       0x0000000000000000       0x23 /home/oracle/devkitPro/PAlib/source/arm7_mp3/../../lib/libpa7.a(PA_Mic.o)
 .comment       0x0000000000000000       0x23 /home/oracle/devkitPro/PAlib/source/arm7_mp3/../../lib/libpa7.a(PA_PSG.o)
 .comment       0x0000000000000000       0x23 /home/oracle/devkitPro/PAlib/source/arm7_mp3/../../lib/libpa7.a(mp3dec.o)
 .comment       0x0000000000000000       0x23 /home/oracle/devkitPro/PAlib/source/arm7_mp3/../../lib/libpa7.a(mp3tabs.o)
 .comment       0x0000000000000000       0x23 /home/oracle/devkitPro/PAlib/source/arm7_mp3/../../lib/libpa7.a(bitstream.o)
 .comment       0x0000000000000000       0x23 /home/oracle/devkitPro/PAlib/source/arm7_mp3/../../lib/libpa7.a(buffers.o)
 .comment       0x0000000000000000       0x23 /home/oracle/devkitPro/PAlib/source/arm7_mp3/../../lib/libpa7.a(dequant.o)
 .comment       0x0000000000000000       0x23 /home/oracle/devkitPro/PAlib/source/arm7_mp3/../../lib/libpa7.a(dqchan.o)
 .comment       0x0000000000000000       0x23 /home/oracle/devkitPro/PAlib/source/arm7_mp3/../../lib/libpa7.a(huffman.o)
 .comment       0x0000000000000000       0x23 /home/oracle/devkitPro/PAlib/source/arm7_mp3/../../lib/libpa7.a(hufftabs.o)
 .comment       0x0000000000000000       0x23 /home/oracle/devkitPro/PAlib/source/arm7_mp3/../../lib/libpa7.a(imdct.o)
 .comment       0x0000000000000000       0x23 /home/oracle/devkitPro/PAlib/source/arm7_mp3/../../lib/libpa7.a(scalfact.o)
 .comment       0x0000000000000000       0x23 /home/oracle/devkitPro/PAlib/source/arm7_mp3/../../lib/libpa7.a(stproc.o)
 .comment       0x0000000000000000       0x23 /home/oracle/devkitPro/PAlib/source/arm7_mp3/../../lib/libpa7.a(subband.o)
 .comment       0x0000000000000000       0x23 /home/oracle/devkitPro/PAlib/source/arm7_mp3/../../lib/libpa7.a(trigtabs.o)
 .comment       0x0000000000000000       0x23 /home/oracle/devkitPro/PAlib/source/arm7_mp3/../../lib/libpa7.a(dct32.o)
 .comment       0x0000000000000022       0x22 /home/oracle/devkitPro/libnds/lib/libnds7.a(audio.o)
                                         0x23 (size before relaxing)
 .comment       0x0000000000000000       0x23 /home/oracle/devkitPro/libnds/lib/libnds7.a(clock.o)
 .comment       0x0000000000000000       0x23 /home/oracle/devkitPro/libnds/lib/libnds7.a(input.o)
 .comment       0x0000000000000000       0x23 /home/oracle/devkitPro/libnds/lib/libnds7.a(microphone.o)
 .comment       0x0000000000000000       0x23 /home/oracle/devkitPro/libnds/lib/libnds7.a(spi.o)
 .comment       0x0000000000000000       0x23 /home/oracle/devkitPro/libnds/lib/libnds7.a(system.o)
 .comment       0x0000000000000000       0x23 /home/oracle/devkitPro/libnds/lib/libnds7.a(touch.o)
 .comment       0x0000000000000000       0x23 /home/oracle/devkitPro/libnds/lib/libnds7.a(userSettings.o)
 .comment       0x0000000000000000       0x23 /home/oracle/devkitPro/libnds/lib/libnds7.a(fifosystem.o)
 .comment       0x0000000000000000       0x23 /home/oracle/devkitPro/libnds/lib/libnds7.a(interrupts.o)
 .comment       0x0000000000000000       0x23 /home/oracle/devkitPro/libnds/lib/libnds7.a(libnds_exit.o)
 .comment       0x0000000000000000       0x23 /home/oracle/devkitPro/libnds/lib/libnds7.a(timers.o)
 .comment       0x0000000000000000       0x23 /home/oracle/devkitPro/devkitARM/bin/../lib/gcc/arm-eabi/4.4.3/../../../../arm-eabi/lib/libg.a(lib_a-init.o)
 .comment       0x0000000000000000       0x23 /home/oracle/devkitPro/devkitARM/bin/../lib/gcc/arm-eabi/4.4.3/../../../../arm-eabi/lib/libg.a(lib_a-malloc.o)
 .comment       0x0000000000000000       0x23 /home/oracle/devkitPro/devkitARM/bin/../lib/gcc/arm-eabi/4.4.3/../../../../arm-eabi/lib/libg.a(lib_a-mallocr.o)
 .comment       0x0000000000000000       0x23 /home/oracle/devkitPro/devkitARM/bin/../lib/gcc/arm-eabi/4.4.3/../../../../arm-eabi/lib/libg.a(lib_a-memcpy.o)
 .comment       0x0000000000000000       0x23 /home/oracle/devkitPro/devkitARM/bin/../lib/gcc/arm-eabi/4.4.3/../../../../arm-eabi/lib/libg.a(lib_a-memmove.o)
 .comment       0x0000000000000000       0x23 /home/oracle/devkitPro/devkitARM/bin/../lib/gcc/arm-eabi/4.4.3/../../../../arm-eabi/lib/libg.a(lib_a-memset.o)
 .comment       0x0000000000000000       0x23 /home/oracle/devkitPro/devkitARM/bin/../lib/gcc/arm-eabi/4.4.3/../../../../arm-eabi/lib/libg.a(lib_a-mlock.o)
 .comment       0x0000000000000000       0x23 /home/oracle/devkitPro/devkitARM/bin/../lib/gcc/arm-eabi/4.4.3/../../../../arm-eabi/lib/libg.a(lib_a-freer.o)
 .comment       0x0000000000000000       0x23 /home/oracle/devkitPro/devkitARM/bin/../lib/gcc/arm-eabi/4.4.3/../../../../arm-eabi/lib/libg.a(lib_a-impure.o)
 .comment       0x0000000000000000       0x23 /home/oracle/devkitPro/devkitARM/bin/../lib/gcc/arm-eabi/4.4.3/../../../../arm-eabi/lib/libsysbase.a(sbrk.o)
 .comment       0x0000000000000000       0x23 /home/oracle/devkitPro/devkitARM/bin/../lib/gcc/arm-eabi/4.4.3/../../../../arm-eabi/lib/libsysbase.a(malloc_vars.o)
 .comment       0x0000000000000000       0x23 /home/oracle/devkitPro/devkitARM/bin/../lib/gcc/arm-eabi/4.4.3/crtend.o

.debug
 *(.debug)

.line
 *(.line)

.debug_srcinfo
 *(.debug_srcinfo)

.debug_sfnames
 *(.debug_sfnames)

.debug_aranges  0x0000000000000000      0x300
 *(.debug_aranges)
 .debug_aranges
                0x0000000000000000       0x20 main.o
 .debug_aranges
                0x0000000000000020       0x20 /home/oracle/devkitPro/PAlib/source/arm7_mp3/../../lib/libpa7.a(as_lib7.o)
 .debug_aranges
                0x0000000000000040       0x20 /home/oracle/devkitPro/PAlib/source/arm7_mp3/../../lib/libpa7.a(PA.o)
 .debug_aranges
                0x0000000000000060       0x20 /home/oracle/devkitPro/PAlib/source/arm7_mp3/../../lib/libpa7.a(PA_Fifo.o)
 .debug_aranges
                0x0000000000000080       0x20 /home/oracle/devkitPro/PAlib/source/arm7_mp3/../../lib/libpa7.a(PA_Input.o)
 .debug_aranges
                0x00000000000000a0       0x20 /home/oracle/devkitPro/PAlib/source/arm7_mp3/../../lib/libpa7.a(PA_Legacy.o)
 .debug_aranges
                0x00000000000000c0       0x20 /home/oracle/devkitPro/PAlib/source/arm7_mp3/../../lib/libpa7.a(PA_Mic.o)
 .debug_aranges
                0x00000000000000e0       0x20 /home/oracle/devkitPro/PAlib/source/arm7_mp3/../../lib/libpa7.a(PA_PSG.o)
 .debug_aranges
                0x0000000000000100       0x20 /home/oracle/devkitPro/PAlib/source/arm7_mp3/../../lib/libpa7.a(mp3dec.o)
 .debug_aranges
                0x0000000000000120       0x20 /home/oracle/devkitPro/PAlib/source/arm7_mp3/../../lib/libpa7.a(bitstream.o)
 .debug_aranges
                0x0000000000000140       0x20 /home/oracle/devkitPro/PAlib/source/arm7_mp3/../../lib/libpa7.a(buffers.o)
 .debug_aranges
                0x0000000000000160       0x20 /home/oracle/devkitPro/PAlib/source/arm7_mp3/../../lib/libpa7.a(dequant.o)
 .debug_aranges
                0x0000000000000180       0x20 /home/oracle/devkitPro/PAlib/source/arm7_mp3/../../lib/libpa7.a(dqchan.o)
 .debug_aranges
                0x00000000000001a0       0x20 /home/oracle/devkitPro/PAlib/source/arm7_mp3/../../lib/libpa7.a(huffman.o)
 .debug_aranges
                0x00000000000001c0       0x20 /home/oracle/devkitPro/PAlib/source/arm7_mp3/../../lib/libpa7.a(imdct.o)
 .debug_aranges
                0x00000000000001e0       0x20 /home/oracle/devkitPro/PAlib/source/arm7_mp3/../../lib/libpa7.a(scalfact.o)
 .debug_aranges
                0x0000000000000200       0x20 /home/oracle/devkitPro/PAlib/source/arm7_mp3/../../lib/libpa7.a(stproc.o)
 .debug_aranges
                0x0000000000000220       0x20 /home/oracle/devkitPro/PAlib/source/arm7_mp3/../../lib/libpa7.a(subband.o)
 .debug_aranges
                0x0000000000000240       0x20 /home/oracle/devkitPro/PAlib/source/arm7_mp3/../../lib/libpa7.a(asmpoly_gcc.o)
 .debug_aranges
                0x0000000000000260       0x20 /home/oracle/devkitPro/PAlib/source/arm7_mp3/../../lib/libpa7.a(dct32.o)
 .debug_aranges
                0x0000000000000280       0x20 /home/oracle/devkitPro/libnds/lib/libnds7.a(intrwait.o)
 .debug_aranges
                0x00000000000002a0       0x20 /home/oracle/devkitPro/libnds/lib/libnds7.a(biosCalls.o)
 .debug_aranges
                0x00000000000002c0       0x20 /home/oracle/devkitPro/libnds/lib/libnds7.a(interruptDispatcher.o)
 .debug_aranges
                0x00000000000002e0       0x20 /home/oracle/devkitPro/libnds/lib/libnds7.a(swiSoftReset.o)

.debug_pubnames
                0x0000000000000000      0x7de
 *(.debug_pubnames)
 .debug_pubnames
                0x0000000000000000       0x34 main.o
 .debug_pubnames
                0x0000000000000034      0x126 /home/oracle/devkitPro/PAlib/source/arm7_mp3/../../lib/libpa7.a(as_lib7.o)
 .debug_pubnames
                0x000000000000015a       0x1e /home/oracle/devkitPro/PAlib/source/arm7_mp3/../../lib/libpa7.a(PA.o)
 .debug_pubnames
                0x0000000000000178       0x4e /home/oracle/devkitPro/PAlib/source/arm7_mp3/../../lib/libpa7.a(PA_Fifo.o)
 .debug_pubnames
                0x00000000000001c6       0x3b /home/oracle/devkitPro/PAlib/source/arm7_mp3/../../lib/libpa7.a(PA_Input.o)
 .debug_pubnames
                0x0000000000000201       0x98 /home/oracle/devkitPro/PAlib/source/arm7_mp3/../../lib/libpa7.a(PA_Legacy.o)
 .debug_pubnames
                0x0000000000000299       0x59 /home/oracle/devkitPro/PAlib/source/arm7_mp3/../../lib/libpa7.a(PA_Mic.o)
 .debug_pubnames
                0x00000000000002f2       0x24 /home/oracle/devkitPro/PAlib/source/arm7_mp3/../../lib/libpa7.a(PA_PSG.o)
 .debug_pubnames
                0x0000000000000316       0xa0 /home/oracle/devkitPro/PAlib/source/arm7_mp3/../../lib/libpa7.a(mp3dec.o)
 .debug_pubnames
                0x00000000000003b6       0xad /home/oracle/devkitPro/PAlib/source/arm7_mp3/../../lib/libpa7.a(mp3tabs.o)
 .debug_pubnames
                0x0000000000000463       0x9e /home/oracle/devkitPro/PAlib/source/arm7_mp3/../../lib/libpa7.a(bitstream.o)
 .debug_pubnames
                0x0000000000000501       0x40 /home/oracle/devkitPro/PAlib/source/arm7_mp3/../../lib/libpa7.a(buffers.o)
 .debug_pubnames
                0x0000000000000541       0x26 /home/oracle/devkitPro/PAlib/source/arm7_mp3/../../lib/libpa7.a(dequant.o)
 .debug_pubnames
                0x0000000000000567       0x2a /home/oracle/devkitPro/PAlib/source/arm7_mp3/../../lib/libpa7.a(dqchan.o)
 .debug_pubnames
                0x0000000000000591       0x29 /home/oracle/devkitPro/PAlib/source/arm7_mp3/../../lib/libpa7.a(huffman.o)
 .debug_pubnames
                0x00000000000005ba       0x95 /home/oracle/devkitPro/PAlib/source/arm7_mp3/../../lib/libpa7.a(hufftabs.o)
 .debug_pubnames
                0x000000000000064f       0x21 /home/oracle/devkitPro/PAlib/source/arm7_mp3/../../lib/libpa7.a(imdct.o)
 .debug_pubnames
                0x0000000000000670       0x2e /home/oracle/devkitPro/PAlib/source/arm7_mp3/../../lib/libpa7.a(scalfact.o)
 .debug_pubnames
                0x000000000000069e       0x5f /home/oracle/devkitPro/PAlib/source/arm7_mp3/../../lib/libpa7.a(stproc.o)
 .debug_pubnames
                0x00000000000006fd       0x23 /home/oracle/devkitPro/PAlib/source/arm7_mp3/../../lib/libpa7.a(subband.o)
 .debug_pubnames
                0x0000000000000720       0x9c /home/oracle/devkitPro/PAlib/source/arm7_mp3/../../lib/libpa7.a(trigtabs.o)
 .debug_pubnames
                0x00000000000007bc       0x22 /home/oracle/devkitPro/PAlib/source/arm7_mp3/../../lib/libpa7.a(dct32.o)

.debug_info     0x0000000000000000     0xa8a0
 *(.debug_info)
 .debug_info    0x0000000000000000      0x192 main.o
 .debug_info    0x0000000000000192      0x93f /home/oracle/devkitPro/PAlib/source/arm7_mp3/../../lib/libpa7.a(as_lib7.o)
 .debug_info    0x0000000000000ad1      0x23b /home/oracle/devkitPro/PAlib/source/arm7_mp3/../../lib/libpa7.a(PA.o)
 .debug_info    0x0000000000000d0c      0x38b /home/oracle/devkitPro/PAlib/source/arm7_mp3/../../lib/libpa7.a(PA_Fifo.o)
 .debug_info    0x0000000000001097      0x336 /home/oracle/devkitPro/PAlib/source/arm7_mp3/../../lib/libpa7.a(PA_Input.o)
 .debug_info    0x00000000000013cd      0x40a /home/oracle/devkitPro/PAlib/source/arm7_mp3/../../lib/libpa7.a(PA_Legacy.o)
 .debug_info    0x00000000000017d7      0x2d9 /home/oracle/devkitPro/PAlib/source/arm7_mp3/../../lib/libpa7.a(PA_Mic.o)
 .debug_info    0x0000000000001ab0      0x247 /home/oracle/devkitPro/PAlib/source/arm7_mp3/../../lib/libpa7.a(PA_PSG.o)
 .debug_info    0x0000000000001cf7      0x8b8 /home/oracle/devkitPro/PAlib/source/arm7_mp3/../../lib/libpa7.a(mp3dec.o)
 .debug_info    0x00000000000025af      0x1af /home/oracle/devkitPro/PAlib/source/arm7_mp3/../../lib/libpa7.a(mp3tabs.o)
 .debug_info    0x000000000000275e      0x8d3 /home/oracle/devkitPro/PAlib/source/arm7_mp3/../../lib/libpa7.a(bitstream.o)
 .debug_info    0x0000000000003031      0x8f9 /home/oracle/devkitPro/PAlib/source/arm7_mp3/../../lib/libpa7.a(buffers.o)
 .debug_info    0x000000000000392a      0x813 /home/oracle/devkitPro/PAlib/source/arm7_mp3/../../lib/libpa7.a(dequant.o)
 .debug_info    0x000000000000413d      0x8f3 /home/oracle/devkitPro/PAlib/source/arm7_mp3/../../lib/libpa7.a(dqchan.o)
 .debug_info    0x0000000000004a30      0xbe2 /home/oracle/devkitPro/PAlib/source/arm7_mp3/../../lib/libpa7.a(huffman.o)
 .debug_info    0x0000000000005612      0x1a5 /home/oracle/devkitPro/PAlib/source/arm7_mp3/../../lib/libpa7.a(hufftabs.o)
 .debug_info    0x00000000000057b7     0x268a /home/oracle/devkitPro/PAlib/source/arm7_mp3/../../lib/libpa7.a(imdct.o)
 .debug_info    0x0000000000007e41      0x98a /home/oracle/devkitPro/PAlib/source/arm7_mp3/../../lib/libpa7.a(scalfact.o)
 .debug_info    0x00000000000087cb      0xca8 /home/oracle/devkitPro/PAlib/source/arm7_mp3/../../lib/libpa7.a(stproc.o)
 .debug_info    0x0000000000009473      0x3e4 /home/oracle/devkitPro/PAlib/source/arm7_mp3/../../lib/libpa7.a(subband.o)
 .debug_info    0x0000000000009857      0x1a6 /home/oracle/devkitPro/PAlib/source/arm7_mp3/../../lib/libpa7.a(trigtabs.o)
 .debug_info    0x00000000000099fd       0xa0 /home/oracle/devkitPro/PAlib/source/arm7_mp3/../../lib/libpa7.a(asmpoly_gcc.o)
 .debug_info    0x0000000000009a9d      0xafd /home/oracle/devkitPro/PAlib/source/arm7_mp3/../../lib/libpa7.a(dct32.o)
 .debug_info    0x000000000000a59a       0xbc /home/oracle/devkitPro/libnds/lib/libnds7.a(intrwait.o)
 .debug_info    0x000000000000a656       0xbf /home/oracle/devkitPro/libnds/lib/libnds7.a(biosCalls.o)
 .debug_info    0x000000000000a715       0xc9 /home/oracle/devkitPro/libnds/lib/libnds7.a(interruptDispatcher.o)
 .debug_info    0x000000000000a7de       0xc2 /home/oracle/devkitPro/libnds/lib/libnds7.a(swiSoftReset.o)

.debug_abbrev   0x0000000000000000     0x21bd
 *(.debug_abbrev)
 .debug_abbrev  0x0000000000000000       0x7e main.o
 .debug_abbrev  0x000000000000007e      0x1c9 /home/oracle/devkitPro/PAlib/source/arm7_mp3/../../lib/libpa7.a(as_lib7.o)
 .debug_abbrev  0x0000000000000247       0xee /home/oracle/devkitPro/PAlib/source/arm7_mp3/../../lib/libpa7.a(PA.o)
 .debug_abbrev  0x0000000000000335      0x148 /home/oracle/devkitPro/PAlib/source/arm7_mp3/../../lib/libpa7.a(PA_Fifo.o)
 .debug_abbrev  0x000000000000047d      0x11a /home/oracle/devkitPro/PAlib/source/arm7_mp3/../../lib/libpa7.a(PA_Input.o)
 .debug_abbrev  0x0000000000000597      0x18d /home/oracle/devkitPro/PAlib/source/arm7_mp3/../../lib/libpa7.a(PA_Legacy.o)
 .debug_abbrev  0x0000000000000724      0x13f /home/oracle/devkitPro/PAlib/source/arm7_mp3/../../lib/libpa7.a(PA_Mic.o)
 .debug_abbrev  0x0000000000000863       0xd5 /home/oracle/devkitPro/PAlib/source/arm7_mp3/../../lib/libpa7.a(PA_PSG.o)
 .debug_abbrev  0x0000000000000938      0x2a9 /home/oracle/devkitPro/PAlib/source/arm7_mp3/../../lib/libpa7.a(mp3dec.o)
 .debug_abbrev  0x0000000000000be1       0x86 /home/oracle/devkitPro/PAlib/source/arm7_mp3/../../lib/libpa7.a(mp3tabs.o)
 .debug_abbrev  0x0000000000000c67      0x277 /home/oracle/devkitPro/PAlib/source/arm7_mp3/../../lib/libpa7.a(bitstream.o)
 .debug_abbrev  0x0000000000000ede      0x153 /home/oracle/devkitPro/PAlib/source/arm7_mp3/../../lib/libpa7.a(buffers.o)
 .debug_abbrev  0x0000000000001031      0x1a8 /home/oracle/devkitPro/PAlib/source/arm7_mp3/../../lib/libpa7.a(dequant.o)
 .debug_abbrev  0x00000000000011d9      0x20c /home/oracle/devkitPro/PAlib/source/arm7_mp3/../../lib/libpa7.a(dqchan.o)
 .debug_abbrev  0x00000000000013e5      0x229 /home/oracle/devkitPro/PAlib/source/arm7_mp3/../../lib/libpa7.a(huffman.o)
 .debug_abbrev  0x000000000000160e       0xb8 /home/oracle/devkitPro/PAlib/source/arm7_mp3/../../lib/libpa7.a(hufftabs.o)
 .debug_abbrev  0x00000000000016c6      0x392 /home/oracle/devkitPro/PAlib/source/arm7_mp3/../../lib/libpa7.a(imdct.o)
 .debug_abbrev  0x0000000000001a58      0x1bd /home/oracle/devkitPro/PAlib/source/arm7_mp3/../../lib/libpa7.a(scalfact.o)
 .debug_abbrev  0x0000000000001c15      0x241 /home/oracle/devkitPro/PAlib/source/arm7_mp3/../../lib/libpa7.a(stproc.o)
 .debug_abbrev  0x0000000000001e56      0x115 /home/oracle/devkitPro/PAlib/source/arm7_mp3/../../lib/libpa7.a(subband.o)
 .debug_abbrev  0x0000000000001f6b       0x75 /home/oracle/devkitPro/PAlib/source/arm7_mp3/../../lib/libpa7.a(trigtabs.o)
 .debug_abbrev  0x0000000000001fe0       0x14 /home/oracle/devkitPro/PAlib/source/arm7_mp3/../../lib/libpa7.a(asmpoly_gcc.o)
 .debug_abbrev  0x0000000000001ff4      0x179 /home/oracle/devkitPro/PAlib/source/arm7_mp3/../../lib/libpa7.a(dct32.o)
 .debug_abbrev  0x000000000000216d       0x14 /home/oracle/devkitPro/libnds/lib/libnds7.a(intrwait.o)
 .debug_abbrev  0x0000000000002181       0x14 /home/oracle/devkitPro/libnds/lib/libnds7.a(biosCalls.o)
 .debug_abbrev  0x0000000000002195       0x14 /home/oracle/devkitPro/libnds/lib/libnds7.a(interruptDispatcher.o)
 .debug_abbrev  0x00000000000021a9       0x14 /home/oracle/devkitPro/libnds/lib/libnds7.a(swiSoftReset.o)

.debug_line     0x0000000000000000     0x3082
 *(.debug_line)
 .debug_line    0x0000000000000000       0xc4 main.o
 .debug_line    0x00000000000000c4      0x371 /home/oracle/devkitPro/PAlib/source/arm7_mp3/../../lib/libpa7.a(as_lib7.o)
 .debug_line    0x0000000000000435      0x156 /home/oracle/devkitPro/PAlib/source/arm7_mp3/../../lib/libpa7.a(PA.o)
 .debug_line    0x000000000000058b      0x1d1 /home/oracle/devkitPro/PAlib/source/arm7_mp3/../../lib/libpa7.a(PA_Fifo.o)
 .debug_line    0x000000000000075c      0x17e /home/oracle/devkitPro/PAlib/source/arm7_mp3/../../lib/libpa7.a(PA_Input.o)
 .debug_line    0x00000000000008da      0x1d3 /home/oracle/devkitPro/PAlib/source/arm7_mp3/../../lib/libpa7.a(PA_Legacy.o)
 .debug_line    0x0000000000000aad      0x1bf /home/oracle/devkitPro/PAlib/source/arm7_mp3/../../lib/libpa7.a(PA_Mic.o)
 .debug_line    0x0000000000000c6c      0x15b /home/oracle/devkitPro/PAlib/source/arm7_mp3/../../lib/libpa7.a(PA_PSG.o)
 .debug_line    0x0000000000000dc7      0x1cf /home/oracle/devkitPro/PAlib/source/arm7_mp3/../../lib/libpa7.a(mp3dec.o)
 .debug_line    0x0000000000000f96       0x6f /home/oracle/devkitPro/PAlib/source/arm7_mp3/../../lib/libpa7.a(mp3tabs.o)
 .debug_line    0x0000000000001005      0x1ed /home/oracle/devkitPro/PAlib/source/arm7_mp3/../../lib/libpa7.a(bitstream.o)
 .debug_line    0x00000000000011f2      0x120 /home/oracle/devkitPro/PAlib/source/arm7_mp3/../../lib/libpa7.a(buffers.o)
 .debug_line    0x0000000000001312      0x15e /home/oracle/devkitPro/PAlib/source/arm7_mp3/../../lib/libpa7.a(dequant.o)
 .debug_line    0x0000000000001470      0x23f /home/oracle/devkitPro/PAlib/source/arm7_mp3/../../lib/libpa7.a(dqchan.o)
 .debug_line    0x00000000000016af      0x2a2 /home/oracle/devkitPro/PAlib/source/arm7_mp3/../../lib/libpa7.a(huffman.o)
 .debug_line    0x0000000000001951       0x71 /home/oracle/devkitPro/PAlib/source/arm7_mp3/../../lib/libpa7.a(hufftabs.o)
 .debug_line    0x00000000000019c2      0x6cb /home/oracle/devkitPro/PAlib/source/arm7_mp3/../../lib/libpa7.a(imdct.o)
 .debug_line    0x000000000000208d      0x1e8 /home/oracle/devkitPro/PAlib/source/arm7_mp3/../../lib/libpa7.a(scalfact.o)
 .debug_line    0x0000000000002275      0x334 /home/oracle/devkitPro/PAlib/source/arm7_mp3/../../lib/libpa7.a(stproc.o)
 .debug_line    0x00000000000025a9       0xf5 /home/oracle/devkitPro/PAlib/source/arm7_mp3/../../lib/libpa7.a(subband.o)
 .debug_line    0x000000000000269e       0x66 /home/oracle/devkitPro/PAlib/source/arm7_mp3/../../lib/libpa7.a(trigtabs.o)
 .debug_line    0x0000000000002704      0x2a5 /home/oracle/devkitPro/PAlib/source/arm7_mp3/../../lib/libpa7.a(asmpoly_gcc.o)
 .debug_line    0x00000000000029a9      0x430 /home/oracle/devkitPro/PAlib/source/arm7_mp3/../../lib/libpa7.a(dct32.o)
 .debug_line    0x0000000000002dd9       0x95 /home/oracle/devkitPro/libnds/lib/libnds7.a(intrwait.o)
 .debug_line    0x0000000000002e6e       0xc1 /home/oracle/devkitPro/libnds/lib/libnds7.a(biosCalls.o)
 .debug_line    0x0000000000002f2f       0xc6 /home/oracle/devkitPro/libnds/lib/libnds7.a(interruptDispatcher.o)
 .debug_line    0x0000000000002ff5       0x8d /home/oracle/devkitPro/libnds/lib/libnds7.a(swiSoftReset.o)

.debug_frame    0x0000000000000000      0x8fc
 *(.debug_frame)
 .debug_frame   0x0000000000000000       0x64 main.o
 .debug_frame   0x0000000000000064      0x148 /home/oracle/devkitPro/PAlib/source/arm7_mp3/../../lib/libpa7.a(as_lib7.o)
 .debug_frame   0x00000000000001ac       0x2c /home/oracle/devkitPro/PAlib/source/arm7_mp3/../../lib/libpa7.a(PA.o)
 .debug_frame   0x00000000000001d8       0x70 /home/oracle/devkitPro/PAlib/source/arm7_mp3/../../lib/libpa7.a(PA_Fifo.o)
 .debug_frame   0x0000000000000248       0x58 /home/oracle/devkitPro/PAlib/source/arm7_mp3/../../lib/libpa7.a(PA_Input.o)
 .debug_frame   0x00000000000002a0       0xac /home/oracle/devkitPro/PAlib/source/arm7_mp3/../../lib/libpa7.a(PA_Legacy.o)
 .debug_frame   0x000000000000034c       0x4c /home/oracle/devkitPro/PAlib/source/arm7_mp3/../../lib/libpa7.a(PA_Mic.o)
 .debug_frame   0x0000000000000398       0x2c /home/oracle/devkitPro/PAlib/source/arm7_mp3/../../lib/libpa7.a(PA_PSG.o)
 .debug_frame   0x00000000000003c4       0xd8 /home/oracle/devkitPro/PAlib/source/arm7_mp3/../../lib/libpa7.a(mp3dec.o)
 .debug_frame   0x000000000000049c       0xb8 /home/oracle/devkitPro/PAlib/source/arm7_mp3/../../lib/libpa7.a(bitstream.o)
 .debug_frame   0x0000000000000554       0x60 /home/oracle/devkitPro/PAlib/source/arm7_mp3/../../lib/libpa7.a(buffers.o)
 .debug_frame   0x00000000000005b4       0x44 /home/oracle/devkitPro/PAlib/source/arm7_mp3/../../lib/libpa7.a(dequant.o)
 .debug_frame   0x00000000000005f8       0x74 /home/oracle/devkitPro/PAlib/source/arm7_mp3/../../lib/libpa7.a(dqchan.o)
 .debug_frame   0x000000000000066c       0x44 /home/oracle/devkitPro/PAlib/source/arm7_mp3/../../lib/libpa7.a(huffman.o)
 .debug_frame   0x00000000000006b0       0xec /home/oracle/devkitPro/PAlib/source/arm7_mp3/../../lib/libpa7.a(imdct.o)
 .debug_frame   0x000000000000079c       0x44 /home/oracle/devkitPro/PAlib/source/arm7_mp3/../../lib/libpa7.a(scalfact.o)
 .debug_frame   0x00000000000007e0       0x98 /home/oracle/devkitPro/PAlib/source/arm7_mp3/../../lib/libpa7.a(stproc.o)
 .debug_frame   0x0000000000000878       0x44 /home/oracle/devkitPro/PAlib/source/arm7_mp3/../../lib/libpa7.a(subband.o)
 .debug_frame   0x00000000000008bc       0x40 /home/oracle/devkitPro/PAlib/source/arm7_mp3/../../lib/libpa7.a(dct32.o)

.debug_str      0x0000000000000000     0x1c63
 *(.debug_str)
 .debug_str     0x0000000000000000      0x1d2 main.o
                                        0x210 (size before relaxing)
 .debug_str     0x00000000000001d2      0x555 /home/oracle/devkitPro/PAlib/source/arm7_mp3/../../lib/libpa7.a(as_lib7.o)
                                        0x662 (size before relaxing)
 .debug_str     0x0000000000000727      0x12e /home/oracle/devkitPro/PAlib/source/arm7_mp3/../../lib/libpa7.a(PA.o)
                                        0x2ed (size before relaxing)
 .debug_str     0x0000000000000855      0x1e4 /home/oracle/devkitPro/PAlib/source/arm7_mp3/../../lib/libpa7.a(PA_Fifo.o)
                                        0x2e7 (size before relaxing)
 .debug_str     0x0000000000000a39       0x69 /home/oracle/devkitPro/PAlib/source/arm7_mp3/../../lib/libpa7.a(PA_Input.o)
                                        0x2b3 (size before relaxing)
 .debug_str     0x0000000000000aa2      0x106 /home/oracle/devkitPro/PAlib/source/arm7_mp3/../../lib/libpa7.a(PA_Legacy.o)
                                        0x337 (size before relaxing)
 .debug_str     0x0000000000000ba8       0xb2 /home/oracle/devkitPro/PAlib/source/arm7_mp3/../../lib/libpa7.a(PA_Mic.o)
                                        0x20f (size before relaxing)
 .debug_str     0x0000000000000c5a       0x47 /home/oracle/devkitPro/PAlib/source/arm7_mp3/../../lib/libpa7.a(PA_PSG.o)
                                        0x190 (size before relaxing)
 .debug_str     0x0000000000000ca1      0x2c7 /home/oracle/devkitPro/PAlib/source/arm7_mp3/../../lib/libpa7.a(mp3dec.o)
                                        0x4fa (size before relaxing)
 .debug_str     0x0000000000000f68       0xb4 /home/oracle/devkitPro/PAlib/source/arm7_mp3/../../lib/libpa7.a(mp3tabs.o)
                                         0xfc (size before relaxing)
 .debug_str     0x000000000000101c      0x280 /home/oracle/devkitPro/PAlib/source/arm7_mp3/../../lib/libpa7.a(bitstream.o)
                                        0x4ae (size before relaxing)
 .debug_str     0x000000000000129c      0x1a1 /home/oracle/devkitPro/PAlib/source/arm7_mp3/../../lib/libpa7.a(buffers.o)
                                        0x561 (size before relaxing)
 .debug_str     0x000000000000143d       0x63 /home/oracle/devkitPro/PAlib/source/arm7_mp3/../../lib/libpa7.a(dequant.o)
                                        0x45e (size before relaxing)
 .debug_str     0x00000000000014a0      0x12b /home/oracle/devkitPro/PAlib/source/arm7_mp3/../../lib/libpa7.a(dqchan.o)
                                        0x388 (size before relaxing)
 .debug_str     0x00000000000015cb      0x1b3 /home/oracle/devkitPro/PAlib/source/arm7_mp3/../../lib/libpa7.a(huffman.o)
                                        0x5be (size before relaxing)
 .debug_str     0x000000000000177e       0x46 /home/oracle/devkitPro/PAlib/source/arm7_mp3/../../lib/libpa7.a(hufftabs.o)
                                        0x180 (size before relaxing)
 .debug_str     0x00000000000017c4      0x1c6 /home/oracle/devkitPro/PAlib/source/arm7_mp3/../../lib/libpa7.a(imdct.o)
                                        0x55f (size before relaxing)
 .debug_str     0x000000000000198a       0xc2 /home/oracle/devkitPro/PAlib/source/arm7_mp3/../../lib/libpa7.a(scalfact.o)
                                        0x49c (size before relaxing)
 .debug_str     0x0000000000001a4c       0xe4 /home/oracle/devkitPro/PAlib/source/arm7_mp3/../../lib/libpa7.a(stproc.o)
                                        0x2b5 (size before relaxing)
 .debug_str     0x0000000000001b30       0x67 /home/oracle/devkitPro/PAlib/source/arm7_mp3/../../lib/libpa7.a(subband.o)
                                        0x26e (size before relaxing)
 .debug_str     0x0000000000001b97       0x63 /home/oracle/devkitPro/PAlib/source/arm7_mp3/../../lib/libpa7.a(trigtabs.o)
                                         0xe6 (size before relaxing)
 .debug_str     0x0000000000001bfa       0x69 /home/oracle/devkitPro/PAlib/source/arm7_mp3/../../lib/libpa7.a(dct32.o)
                                         0xbb (size before relaxing)

.debug_loc      0x0000000000000000     0x5672
 *(.debug_loc)
 .debug_loc     0x0000000000000000       0x5d main.o
 .debug_loc     0x000000000000005d      0x289 /home/oracle/devkitPro/PAlib/source/arm7_mp3/../../lib/libpa7.a(as_lib7.o)
 .debug_loc     0x00000000000002e6       0x3d /home/oracle/devkitPro/PAlib/source/arm7_mp3/../../lib/libpa7.a(PA.o)
 .debug_loc     0x0000000000000323       0xd5 /home/oracle/devkitPro/PAlib/source/arm7_mp3/../../lib/libpa7.a(PA_Fifo.o)
 .debug_loc     0x00000000000003f8       0x3e /home/oracle/devkitPro/PAlib/source/arm7_mp3/../../lib/libpa7.a(PA_Input.o)
 .debug_loc     0x0000000000000436       0x9a /home/oracle/devkitPro/PAlib/source/arm7_mp3/../../lib/libpa7.a(PA_Legacy.o)
 .debug_loc     0x00000000000004d0       0x51 /home/oracle/devkitPro/PAlib/source/arm7_mp3/../../lib/libpa7.a(PA_Mic.o)
 .debug_loc     0x0000000000000521       0x3d /home/oracle/devkitPro/PAlib/source/arm7_mp3/../../lib/libpa7.a(PA_PSG.o)
 .debug_loc     0x000000000000055e      0x6de /home/oracle/devkitPro/PAlib/source/arm7_mp3/../../lib/libpa7.a(mp3dec.o)
 .debug_loc     0x0000000000000c3c      0x29a /home/oracle/devkitPro/PAlib/source/arm7_mp3/../../lib/libpa7.a(bitstream.o)
 .debug_loc     0x0000000000000ed6       0x7a /home/oracle/devkitPro/PAlib/source/arm7_mp3/../../lib/libpa7.a(buffers.o)
 .debug_loc     0x0000000000000f50      0x1a5 /home/oracle/devkitPro/PAlib/source/arm7_mp3/../../lib/libpa7.a(dequant.o)
 .debug_loc     0x00000000000010f5      0x50d /home/oracle/devkitPro/PAlib/source/arm7_mp3/../../lib/libpa7.a(dqchan.o)
 .debug_loc     0x0000000000001602      0x9bf /home/oracle/devkitPro/PAlib/source/arm7_mp3/../../lib/libpa7.a(huffman.o)
 .debug_loc     0x0000000000001fc1     0x1951 /home/oracle/devkitPro/PAlib/source/arm7_mp3/../../lib/libpa7.a(imdct.o)
 .debug_loc     0x0000000000003912      0x41f /home/oracle/devkitPro/PAlib/source/arm7_mp3/../../lib/libpa7.a(scalfact.o)
 .debug_loc     0x0000000000003d31      0x9e5 /home/oracle/devkitPro/PAlib/source/arm7_mp3/../../lib/libpa7.a(stproc.o)
 .debug_loc     0x0000000000004716       0x9b /home/oracle/devkitPro/PAlib/source/arm7_mp3/../../lib/libpa7.a(subband.o)
 .debug_loc     0x00000000000047b1      0xec1 /home/oracle/devkitPro/PAlib/source/arm7_mp3/../../lib/libpa7.a(dct32.o)

.debug_macinfo
 *(.debug_macinfo)

.debug_weaknames
 *(.debug_weaknames)

.debug_funcnames
 *(.debug_funcnames)

.debug_typenames
 *(.debug_typenames)

.debug_varnames
 *(.debug_varnames)

.stack          0x0000000000080000        0x0
                0x0000000000080000                _stack = .
 *(.stack)
LOAD /home/oracle/devkitPro/devkitARM/bin/../lib/gcc/arm-eabi/4.4.3/../../../../arm-eabi/lib/ds_arm7_crt0.o
LOAD /home/oracle/devkitPro/devkitARM/bin/../lib/gcc/arm-eabi/4.4.3/crti.o
LOAD /home/oracle/devkitPro/devkitARM/bin/../lib/gcc/arm-eabi/4.4.3/crtbegin.o
LOAD main.o
LOAD /home/oracle/devkitPro/libnds/lib/libmm7.a
LOAD /home/oracle/devkitPro/libnds/lib/libdswifi7.a
LOAD /home/oracle/devkitPro/PAlib/source/arm7_mp3/../../lib/libpa7.a
LOAD /home/oracle/devkitPro/libnds/lib/libnds7.a
START GROUP
LOAD /home/oracle/devkitPro/devkitARM/bin/../lib/gcc/arm-eabi/4.4.3/libgcc.a
LOAD /home/oracle/devkitPro/devkitARM/bin/../lib/gcc/arm-eabi/4.4.3/../../../../arm-eabi/lib/libg.a
LOAD /home/oracle/devkitPro/devkitARM/bin/../lib/gcc/arm-eabi/4.4.3/../../../../arm-eabi/lib/libc.a
LOAD /home/oracle/devkitPro/devkitARM/bin/../lib/gcc/arm-eabi/4.4.3/../../../../arm-eabi/lib/libsysbase.a
END GROUP
LOAD /home/oracle/devkitPro/devkitARM/bin/../lib/gcc/arm-eabi/4.4.3/crtend.o
LOAD /home/oracle/devkitPro/devkitARM/bin/../lib/gcc/arm-eabi/4.4.3/crtn.o
OUTPUT(arm7.elf elf32-littlearm)

.debug_ranges   0x0000000000000000      0xfe8
 .debug_ranges  0x0000000000000000       0x30 /home/oracle/devkitPro/PAlib/source/arm7_mp3/../../lib/libpa7.a(PA.o)
 .debug_ranges  0x0000000000000030       0xe0 /home/oracle/devkitPro/PAlib/source/arm7_mp3/../../lib/libpa7.a(mp3dec.o)
 .debug_ranges  0x0000000000000110       0x48 /home/oracle/devkitPro/PAlib/source/arm7_mp3/../../lib/libpa7.a(bitstream.o)
 .debug_ranges  0x0000000000000158       0x30 /home/oracle/devkitPro/PAlib/source/arm7_mp3/../../lib/libpa7.a(dqchan.o)
 .debug_ranges  0x0000000000000188       0xe0 /home/oracle/devkitPro/PAlib/source/arm7_mp3/../../lib/libpa7.a(huffman.o)
 .debug_ranges  0x0000000000000268      0x360 /home/oracle/devkitPro/PAlib/source/arm7_mp3/../../lib/libpa7.a(imdct.o)
 .debug_ranges  0x00000000000005c8       0x90 /home/oracle/devkitPro/PAlib/source/arm7_mp3/../../lib/libpa7.a(scalfact.o)
 .debug_ranges  0x0000000000000658      0x120 /home/oracle/devkitPro/PAlib/source/arm7_mp3/../../lib/libpa7.a(stproc.o)
 .debug_ranges  0x0000000000000778      0x870 /home/oracle/devkitPro/PAlib/source/arm7_mp3/../../lib/libpa7.a(dct32.o)
